
bomb:     file format elf32-i386


Disassembly of section .init:

080487d8 <_init>:
 80487d8:	53                   	push   %ebx
 80487d9:	83 ec 08             	sub    $0x8,%esp
 80487dc:	e8 00 00 00 00       	call   80487e1 <_init+0x9>
 80487e1:	5b                   	pop    %ebx
 80487e2:	81 c3 13 48 00 00    	add    $0x4813,%ebx
 80487e8:	8b 83 fc ff ff ff    	mov    -0x4(%ebx),%eax
 80487ee:	85 c0                	test   %eax,%eax
 80487f0:	74 05                	je     80487f7 <_init+0x1f>
 80487f2:	e8 09 01 00 00       	call   8048900 <__gmon_start__@plt>
 80487f7:	e8 c4 02 00 00       	call   8048ac0 <frame_dummy>
 80487fc:	e8 7f 1d 00 00       	call   804a580 <__do_global_ctors_aux>
 8048801:	83 c4 08             	add    $0x8,%esp
 8048804:	5b                   	pop    %ebx
 8048805:	c3                   	ret    

Disassembly of section .plt:

08048810 <read@plt-0x10>:
 8048810:	ff 35 f8 cf 04 08    	pushl  0x804cff8
 8048816:	ff 25 fc cf 04 08    	jmp    *0x804cffc
 804881c:	00 00                	add    %al,(%eax)
	...

08048820 <read@plt>:
 8048820:	ff 25 00 d0 04 08    	jmp    *0x804d000
 8048826:	68 00 00 00 00       	push   $0x0
 804882b:	e9 e0 ff ff ff       	jmp    8048810 <_init+0x38>

08048830 <fflush@plt>:
 8048830:	ff 25 04 d0 04 08    	jmp    *0x804d004
 8048836:	68 08 00 00 00       	push   $0x8
 804883b:	e9 d0 ff ff ff       	jmp    8048810 <_init+0x38>

08048840 <fgets@plt>:
 8048840:	ff 25 08 d0 04 08    	jmp    *0x804d008
 8048846:	68 10 00 00 00       	push   $0x10
 804884b:	e9 c0 ff ff ff       	jmp    8048810 <_init+0x38>

08048850 <signal@plt>:
 8048850:	ff 25 0c d0 04 08    	jmp    *0x804d00c
 8048856:	68 18 00 00 00       	push   $0x18
 804885b:	e9 b0 ff ff ff       	jmp    8048810 <_init+0x38>

08048860 <sleep@plt>:
 8048860:	ff 25 10 d0 04 08    	jmp    *0x804d010
 8048866:	68 20 00 00 00       	push   $0x20
 804886b:	e9 a0 ff ff ff       	jmp    8048810 <_init+0x38>

08048870 <alarm@plt>:
 8048870:	ff 25 14 d0 04 08    	jmp    *0x804d014
 8048876:	68 28 00 00 00       	push   $0x28
 804887b:	e9 90 ff ff ff       	jmp    8048810 <_init+0x38>

08048880 <__stack_chk_fail@plt>:
 8048880:	ff 25 18 d0 04 08    	jmp    *0x804d018
 8048886:	68 30 00 00 00       	push   $0x30
 804888b:	e9 80 ff ff ff       	jmp    8048810 <_init+0x38>

08048890 <fwrite@plt>:
 8048890:	ff 25 1c d0 04 08    	jmp    *0x804d01c
 8048896:	68 38 00 00 00       	push   $0x38
 804889b:	e9 70 ff ff ff       	jmp    8048810 <_init+0x38>

080488a0 <strcpy@plt>:
 80488a0:	ff 25 20 d0 04 08    	jmp    *0x804d020
 80488a6:	68 40 00 00 00       	push   $0x40
 80488ab:	e9 60 ff ff ff       	jmp    8048810 <_init+0x38>

080488b0 <gethostname@plt>:
 80488b0:	ff 25 24 d0 04 08    	jmp    *0x804d024
 80488b6:	68 48 00 00 00       	push   $0x48
 80488bb:	e9 50 ff ff ff       	jmp    8048810 <_init+0x38>

080488c0 <getenv@plt>:
 80488c0:	ff 25 28 d0 04 08    	jmp    *0x804d028
 80488c6:	68 50 00 00 00       	push   $0x50
 80488cb:	e9 40 ff ff ff       	jmp    8048810 <_init+0x38>

080488d0 <puts@plt>:
 80488d0:	ff 25 2c d0 04 08    	jmp    *0x804d02c
 80488d6:	68 58 00 00 00       	push   $0x58
 80488db:	e9 30 ff ff ff       	jmp    8048810 <_init+0x38>

080488e0 <__memmove_chk@plt>:
 80488e0:	ff 25 30 d0 04 08    	jmp    *0x804d030
 80488e6:	68 60 00 00 00       	push   $0x60
 80488eb:	e9 20 ff ff ff       	jmp    8048810 <_init+0x38>

080488f0 <__memcpy_chk@plt>:
 80488f0:	ff 25 34 d0 04 08    	jmp    *0x804d034
 80488f6:	68 68 00 00 00       	push   $0x68
 80488fb:	e9 10 ff ff ff       	jmp    8048810 <_init+0x38>

08048900 <__gmon_start__@plt>:
 8048900:	ff 25 38 d0 04 08    	jmp    *0x804d038
 8048906:	68 70 00 00 00       	push   $0x70
 804890b:	e9 00 ff ff ff       	jmp    8048810 <_init+0x38>

08048910 <exit@plt>:
 8048910:	ff 25 3c d0 04 08    	jmp    *0x804d03c
 8048916:	68 78 00 00 00       	push   $0x78
 804891b:	e9 f0 fe ff ff       	jmp    8048810 <_init+0x38>

08048920 <__libc_start_main@plt>:
 8048920:	ff 25 40 d0 04 08    	jmp    *0x804d040
 8048926:	68 80 00 00 00       	push   $0x80
 804892b:	e9 e0 fe ff ff       	jmp    8048810 <_init+0x38>

08048930 <write@plt>:
 8048930:	ff 25 44 d0 04 08    	jmp    *0x804d044
 8048936:	68 88 00 00 00       	push   $0x88
 804893b:	e9 d0 fe ff ff       	jmp    8048810 <_init+0x38>

08048940 <strcasecmp@plt>:
 8048940:	ff 25 48 d0 04 08    	jmp    *0x804d048
 8048946:	68 90 00 00 00       	push   $0x90
 804894b:	e9 c0 fe ff ff       	jmp    8048810 <_init+0x38>

08048950 <__isoc99_sscanf@plt>:
 8048950:	ff 25 4c d0 04 08    	jmp    *0x804d04c
 8048956:	68 98 00 00 00       	push   $0x98
 804895b:	e9 b0 fe ff ff       	jmp    8048810 <_init+0x38>

08048960 <fopen@plt>:
 8048960:	ff 25 50 d0 04 08    	jmp    *0x804d050
 8048966:	68 a0 00 00 00       	push   $0xa0
 804896b:	e9 a0 fe ff ff       	jmp    8048810 <_init+0x38>

08048970 <__errno_location@plt>:
 8048970:	ff 25 54 d0 04 08    	jmp    *0x804d054
 8048976:	68 a8 00 00 00       	push   $0xa8
 804897b:	e9 90 fe ff ff       	jmp    8048810 <_init+0x38>

08048980 <gai_strerror@plt>:
 8048980:	ff 25 58 d0 04 08    	jmp    *0x804d058
 8048986:	68 b0 00 00 00       	push   $0xb0
 804898b:	e9 80 fe ff ff       	jmp    8048810 <_init+0x38>

08048990 <__printf_chk@plt>:
 8048990:	ff 25 5c d0 04 08    	jmp    *0x804d05c
 8048996:	68 b8 00 00 00       	push   $0xb8
 804899b:	e9 70 fe ff ff       	jmp    8048810 <_init+0x38>

080489a0 <socket@plt>:
 80489a0:	ff 25 60 d0 04 08    	jmp    *0x804d060
 80489a6:	68 c0 00 00 00       	push   $0xc0
 80489ab:	e9 60 fe ff ff       	jmp    8048810 <_init+0x38>

080489b0 <getaddrinfo@plt>:
 80489b0:	ff 25 64 d0 04 08    	jmp    *0x804d064
 80489b6:	68 c8 00 00 00       	push   $0xc8
 80489bb:	e9 50 fe ff ff       	jmp    8048810 <_init+0x38>

080489c0 <__fprintf_chk@plt>:
 80489c0:	ff 25 68 d0 04 08    	jmp    *0x804d068
 80489c6:	68 d0 00 00 00       	push   $0xd0
 80489cb:	e9 40 fe ff ff       	jmp    8048810 <_init+0x38>

080489d0 <gethostbyname@plt>:
 80489d0:	ff 25 6c d0 04 08    	jmp    *0x804d06c
 80489d6:	68 d8 00 00 00       	push   $0xd8
 80489db:	e9 30 fe ff ff       	jmp    8048810 <_init+0x38>

080489e0 <strtol@plt>:
 80489e0:	ff 25 70 d0 04 08    	jmp    *0x804d070
 80489e6:	68 e0 00 00 00       	push   $0xe0
 80489eb:	e9 20 fe ff ff       	jmp    8048810 <_init+0x38>

080489f0 <connect@plt>:
 80489f0:	ff 25 74 d0 04 08    	jmp    *0x804d074
 80489f6:	68 e8 00 00 00       	push   $0xe8
 80489fb:	e9 10 fe ff ff       	jmp    8048810 <_init+0x38>

08048a00 <close@plt>:
 8048a00:	ff 25 78 d0 04 08    	jmp    *0x804d078
 8048a06:	68 f0 00 00 00       	push   $0xf0
 8048a0b:	e9 00 fe ff ff       	jmp    8048810 <_init+0x38>

08048a10 <__ctype_b_loc@plt>:
 8048a10:	ff 25 7c d0 04 08    	jmp    *0x804d07c
 8048a16:	68 f8 00 00 00       	push   $0xf8
 8048a1b:	e9 f0 fd ff ff       	jmp    8048810 <_init+0x38>

08048a20 <__sprintf_chk@plt>:
 8048a20:	ff 25 80 d0 04 08    	jmp    *0x804d080
 8048a26:	68 00 01 00 00       	push   $0x100
 8048a2b:	e9 e0 fd ff ff       	jmp    8048810 <_init+0x38>

Disassembly of section .text:

08048a30 <_start>:
 8048a30:	31 ed                	xor    %ebp,%ebp
 8048a32:	5e                   	pop    %esi
 8048a33:	89 e1                	mov    %esp,%ecx
 8048a35:	83 e4 f0             	and    $0xfffffff0,%esp
 8048a38:	50                   	push   %eax
 8048a39:	54                   	push   %esp
 8048a3a:	52                   	push   %edx
 8048a3b:	68 70 a5 04 08       	push   $0x804a570
 8048a40:	68 00 a5 04 08       	push   $0x804a500
 8048a45:	51                   	push   %ecx
 8048a46:	56                   	push   %esi
 8048a47:	68 e4 8a 04 08       	push   $0x8048ae4
 8048a4c:	e8 cf fe ff ff       	call   8048920 <__libc_start_main@plt>
 8048a51:	f4                   	hlt    
 8048a52:	90                   	nop
 8048a53:	90                   	nop
 8048a54:	90                   	nop
 8048a55:	90                   	nop
 8048a56:	90                   	nop
 8048a57:	90                   	nop
 8048a58:	90                   	nop
 8048a59:	90                   	nop
 8048a5a:	90                   	nop
 8048a5b:	90                   	nop
 8048a5c:	90                   	nop
 8048a5d:	90                   	nop
 8048a5e:	90                   	nop
 8048a5f:	90                   	nop

08048a60 <__do_global_dtors_aux>:
 8048a60:	55                   	push   %ebp
 8048a61:	89 e5                	mov    %esp,%ebp
 8048a63:	53                   	push   %ebx
 8048a64:	83 ec 04             	sub    $0x4,%esp
 8048a67:	80 3d 04 d8 04 08 00 	cmpb   $0x0,0x804d804
 8048a6e:	75 3f                	jne    8048aaf <__do_global_dtors_aux+0x4f>
 8048a70:	a1 08 d8 04 08       	mov    0x804d808,%eax
 8048a75:	bb 20 cf 04 08       	mov    $0x804cf20,%ebx
 8048a7a:	81 eb 1c cf 04 08    	sub    $0x804cf1c,%ebx
 8048a80:	c1 fb 02             	sar    $0x2,%ebx
 8048a83:	83 eb 01             	sub    $0x1,%ebx
 8048a86:	39 d8                	cmp    %ebx,%eax
 8048a88:	73 1e                	jae    8048aa8 <__do_global_dtors_aux+0x48>
 8048a8a:	8d b6 00 00 00 00    	lea    0x0(%esi),%esi
 8048a90:	83 c0 01             	add    $0x1,%eax
 8048a93:	a3 08 d8 04 08       	mov    %eax,0x804d808
 8048a98:	ff 14 85 1c cf 04 08 	call   *0x804cf1c(,%eax,4)
 8048a9f:	a1 08 d8 04 08       	mov    0x804d808,%eax
 8048aa4:	39 d8                	cmp    %ebx,%eax
 8048aa6:	72 e8                	jb     8048a90 <__do_global_dtors_aux+0x30>
 8048aa8:	c6 05 04 d8 04 08 01 	movb   $0x1,0x804d804
 8048aaf:	83 c4 04             	add    $0x4,%esp
 8048ab2:	5b                   	pop    %ebx
 8048ab3:	5d                   	pop    %ebp
 8048ab4:	c3                   	ret    
 8048ab5:	8d 74 26 00          	lea    0x0(%esi,%eiz,1),%esi
 8048ab9:	8d bc 27 00 00 00 00 	lea    0x0(%edi,%eiz,1),%edi

08048ac0 <frame_dummy>:
 8048ac0:	55                   	push   %ebp
 8048ac1:	89 e5                	mov    %esp,%ebp
 8048ac3:	83 ec 18             	sub    $0x18,%esp
 8048ac6:	a1 24 cf 04 08       	mov    0x804cf24,%eax
 8048acb:	85 c0                	test   %eax,%eax
 8048acd:	74 12                	je     8048ae1 <frame_dummy+0x21>
 8048acf:	b8 00 00 00 00       	mov    $0x0,%eax
 8048ad4:	85 c0                	test   %eax,%eax
 8048ad6:	74 09                	je     8048ae1 <frame_dummy+0x21>
 8048ad8:	c7 04 24 24 cf 04 08 	movl   $0x804cf24,(%esp)
 8048adf:	ff d0                	call   *%eax
 8048ae1:	c9                   	leave  
 8048ae2:	c3                   	ret    
 8048ae3:	90                   	nop

08048ae4 <main>:
 8048ae4:	55                   	push   %ebp
 8048ae5:	89 e5                	mov    %esp,%ebp
 8048ae7:	53                   	push   %ebx
 8048ae8:	83 e4 f0             	and    $0xfffffff0,%esp
 8048aeb:	83 ec 10             	sub    $0x10,%esp
 8048aee:	8b 45 08             	mov    0x8(%ebp),%eax
 8048af1:	8b 5d 0c             	mov    0xc(%ebp),%ebx
 8048af4:	83 f8 01             	cmp    $0x1,%eax
 8048af7:	75 0c                	jne    8048b05 <main+0x21>
 8048af9:	a1 e4 d7 04 08       	mov    0x804d7e4,%eax
 8048afe:	a3 10 d8 04 08       	mov    %eax,0x804d810
 8048b03:	eb 74                	jmp    8048b79 <main+0x95>
 8048b05:	83 f8 02             	cmp    $0x2,%eax
 8048b08:	75 49                	jne    8048b53 <main+0x6f>
 8048b0a:	c7 44 24 04 e8 a5 04 	movl   $0x804a5e8,0x4(%esp)
 8048b11:	08 
 8048b12:	8b 43 04             	mov    0x4(%ebx),%eax
 8048b15:	89 04 24             	mov    %eax,(%esp)
 8048b18:	e8 43 fe ff ff       	call   8048960 <fopen@plt>
 8048b1d:	a3 10 d8 04 08       	mov    %eax,0x804d810
 8048b22:	85 c0                	test   %eax,%eax
 8048b24:	75 53                	jne    8048b79 <main+0x95>
 8048b26:	8b 43 04             	mov    0x4(%ebx),%eax
 8048b29:	89 44 24 0c          	mov    %eax,0xc(%esp)
 8048b2d:	8b 03                	mov    (%ebx),%eax
 8048b2f:	89 44 24 08          	mov    %eax,0x8(%esp)
 8048b33:	c7 44 24 04 ea a5 04 	movl   $0x804a5ea,0x4(%esp)
 8048b3a:	08 
 8048b3b:	c7 04 24 01 00 00 00 	movl   $0x1,(%esp)
 8048b42:	e8 49 fe ff ff       	call   8048990 <__printf_chk@plt>
 8048b47:	c7 04 24 08 00 00 00 	movl   $0x8,(%esp)
 8048b4e:	e8 bd fd ff ff       	call   8048910 <exit@plt>
 8048b53:	8b 03                	mov    (%ebx),%eax
 8048b55:	89 44 24 08          	mov    %eax,0x8(%esp)
 8048b59:	c7 44 24 04 07 a6 04 	movl   $0x804a607,0x4(%esp)
 8048b60:	08 
 8048b61:	c7 04 24 01 00 00 00 	movl   $0x1,(%esp)
 8048b68:	e8 23 fe ff ff       	call   8048990 <__printf_chk@plt>
 8048b6d:	c7 04 24 08 00 00 00 	movl   $0x8,(%esp)
 8048b74:	e8 97 fd ff ff       	call   8048910 <exit@plt>
 8048b79:	e8 80 07 00 00       	call   80492fe <initialize_bomb>
 8048b7e:	c7 04 24 5c a6 04 08 	movl   $0x804a65c,(%esp)
 8048b85:	e8 46 fd ff ff       	call   80488d0 <puts@plt>
 8048b8a:	c7 04 24 9c a6 04 08 	movl   $0x804a69c,(%esp)
 8048b91:	e8 3a fd ff ff       	call   80488d0 <puts@plt>
 8048b96:	e8 02 0b 00 00       	call   804969d <read_line>
 8048b9b:	89 04 24             	mov    %eax,(%esp)
 8048b9e:	e8 ad 00 00 00       	call   8048c50 <phase_1>
 8048ba3:	e8 53 0c 00 00       	call   80497fb <phase_defused>
 8048ba8:	c7 04 24 dc a6 04 08 	movl   $0x804a6dc,(%esp)
 8048baf:	e8 1c fd ff ff       	call   80488d0 <puts@plt>
 8048bb4:	e8 e4 0a 00 00       	call   804969d <read_line>
 8048bb9:	89 04 24             	mov    %eax,(%esp)
 8048bbc:	e8 b3 00 00 00       	call   8048c74 <phase_2>
 8048bc1:	e8 35 0c 00 00       	call   80497fb <phase_defused>
 8048bc6:	c7 04 24 21 a6 04 08 	movl   $0x804a621,(%esp)
 8048bcd:	e8 fe fc ff ff       	call   80488d0 <puts@plt>
 8048bd2:	e8 c6 0a 00 00       	call   804969d <read_line>
 8048bd7:	89 04 24             	mov    %eax,(%esp)
 8048bda:	e8 e3 00 00 00       	call   8048cc2 <phase_3>
 8048bdf:	e8 17 0c 00 00       	call   80497fb <phase_defused>
 8048be4:	c7 04 24 08 a7 04 08 	movl   $0x804a708,(%esp)
 8048beb:	e8 e0 fc ff ff       	call   80488d0 <puts@plt>
 8048bf0:	e8 a8 0a 00 00       	call   804969d <read_line>
 8048bf5:	89 04 24             	mov    %eax,(%esp)
 8048bf8:	e8 95 02 00 00       	call   8048e92 <phase_4>
 8048bfd:	e8 f9 0b 00 00       	call   80497fb <phase_defused>
 8048c02:	c7 04 24 3b a6 04 08 	movl   $0x804a63b,(%esp)
 8048c09:	e8 c2 fc ff ff       	call   80488d0 <puts@plt>
 8048c0e:	e8 8a 0a 00 00       	call   804969d <read_line>
 8048c13:	89 04 24             	mov    %eax,(%esp)
 8048c16:	e8 e5 02 00 00       	call   8048f00 <phase_5>
 8048c1b:	e8 db 0b 00 00       	call   80497fb <phase_defused>
 8048c20:	c7 04 24 28 a7 04 08 	movl   $0x804a728,(%esp)
 8048c27:	e8 a4 fc ff ff       	call   80488d0 <puts@plt>
 8048c2c:	e8 6c 0a 00 00       	call   804969d <read_line>
 8048c31:	89 04 24             	mov    %eax,(%esp)
 8048c34:	e8 1b 03 00 00       	call   8048f54 <phase_6>
 8048c39:	e8 bd 0b 00 00       	call   80497fb <phase_defused>
 8048c3e:	b8 00 00 00 00       	mov    $0x0,%eax
 8048c43:	8b 5d fc             	mov    -0x4(%ebp),%ebx
 8048c46:	c9                   	leave  
 8048c47:	c3                   	ret    
 8048c48:	90                   	nop
 8048c49:	90                   	nop
 8048c4a:	90                   	nop
 8048c4b:	90                   	nop
 8048c4c:	90                   	nop
 8048c4d:	90                   	nop
 8048c4e:	90                   	nop
 8048c4f:	90                   	nop

08048c50 <phase_1>:
 8048c50:	83 ec 1c             	sub    $0x1c,%esp
 8048c53:	c7 44 24 04 4c a7 04 	movl   $0x804a74c,0x4(%esp)
 8048c5a:	08 
 8048c5b:	8b 44 24 20          	mov    0x20(%esp),%eax
 8048c5f:	89 04 24             	mov    %eax,(%esp)
 8048c62:	e8 88 05 00 00       	call   80491ef <strings_check>
 8048c67:	85 c0                	test   %eax,%eax
 8048c69:	74 05                	je     8048c70 <phase_1+0x20>
 8048c6b:	e8 fa 09 00 00       	call   804966a <explode_bomb>
 8048c70:	83 c4 1c             	add    $0x1c,%esp
 8048c73:	c3                   	ret    

08048c74 <phase_2>:
 8048c74:	53                   	push   %ebx
 8048c75:	83 ec 38             	sub    $0x38,%esp
 8048c78:	8d 44 24 18          	lea    0x18(%esp),%eax
 8048c7c:	89 44 24 04          	mov    %eax,0x4(%esp)
 8048c80:	8b 44 24 40          	mov    0x40(%esp),%eax
 8048c84:	89 04 24             	mov    %eax,(%esp)
 8048c87:	e8 1f 0b 00 00       	call   80497ab <read_six_numbers>
 8048c8c:	83 7c 24 18 01       	cmpl   $0x1,0x18(%esp)
 8048c91:	7f 05                	jg     8048c98 <phase_2+0x24>
 8048c93:	e8 d2 09 00 00       	call   804966a <explode_bomb>
 8048c98:	bb 01 00 00 00       	mov    $0x1,%ebx
 8048c9d:	8b 44 9c 14          	mov    0x14(%esp,%ebx,4),%eax
 8048ca1:	01 c0                	add    %eax,%eax
 8048ca3:	89 da                	mov    %ebx,%edx
 8048ca5:	83 e2 01             	and    $0x1,%edx
 8048ca8:	29 d0                	sub    %edx,%eax
 8048caa:	39 44 9c 18          	cmp    %eax,0x18(%esp,%ebx,4)
 8048cae:	74 05                	je     8048cb5 <phase_2+0x41>
 8048cb0:	e8 b5 09 00 00       	call   804966a <explode_bomb>
 8048cb5:	83 c3 01             	add    $0x1,%ebx
 8048cb8:	83 fb 06             	cmp    $0x6,%ebx
 8048cbb:	75 e0                	jne    8048c9d <phase_2+0x29>
 8048cbd:	83 c4 38             	add    $0x38,%esp
 8048cc0:	5b                   	pop    %ebx
 8048cc1:	c3                   	ret    

08048cc2 <phase_3>:
 8048cc2:	83 ec 3c             	sub    $0x3c,%esp
 8048cc5:	8d 44 24 28          	lea    0x28(%esp),%eax
 8048cc9:	89 44 24 10          	mov    %eax,0x10(%esp)
 8048ccd:	8d 44 24 2f          	lea    0x2f(%esp),%eax
 8048cd1:	89 44 24 0c          	mov    %eax,0xc(%esp)
 8048cd5:	8d 44 24 24          	lea    0x24(%esp),%eax
 8048cd9:	89 44 24 08          	mov    %eax,0x8(%esp)
 8048cdd:	c7 44 24 04 af a7 04 	movl   $0x804a7af,0x4(%esp)
 8048ce4:	08 
 8048ce5:	8b 44 24 40          	mov    0x40(%esp),%eax
 8048ce9:	89 04 24             	mov    %eax,(%esp)
 8048cec:	e8 5f fc ff ff       	call   8048950 <__isoc99_sscanf@plt>
 8048cf1:	8b 54 24 28          	mov    0x28(%esp),%edx
 8048cf5:	89 d1                	mov    %edx,%ecx
 8048cf7:	c1 e9 1f             	shr    $0x1f,%ecx
 8048cfa:	01 ca                	add    %ecx,%edx
 8048cfc:	d1 fa                	sar    %edx
 8048cfe:	89 54 24 28          	mov    %edx,0x28(%esp)
 8048d02:	83 f8 02             	cmp    $0x2,%eax
 8048d05:	7f 05                	jg     8048d0c <phase_3+0x4a>
 8048d07:	e8 5e 09 00 00       	call   804966a <explode_bomb>
 8048d0c:	83 7c 24 24 07       	cmpl   $0x7,0x24(%esp)
 8048d11:	0f 87 f5 00 00 00    	ja     8048e0c <phase_3+0x14a>
 8048d17:	8b 44 24 24          	mov    0x24(%esp),%eax
 8048d1b:	ff 24 85 c0 a7 04 08 	jmp    *0x804a7c0(,%eax,4)
 8048d22:	b8 72 00 00 00       	mov    $0x72,%eax
 8048d27:	81 7c 24 28 94 08 00 	cmpl   $0x894,0x28(%esp)
 8048d2e:	00 
 8048d2f:	0f 84 e1 00 00 00    	je     8048e16 <phase_3+0x154>
 8048d35:	e8 30 09 00 00       	call   804966a <explode_bomb>
 8048d3a:	b8 72 00 00 00       	mov    $0x72,%eax
 8048d3f:	e9 d2 00 00 00       	jmp    8048e16 <phase_3+0x154>
 8048d44:	b8 65 00 00 00       	mov    $0x65,%eax
 8048d49:	81 7c 24 28 b7 02 00 	cmpl   $0x2b7,0x28(%esp)
 8048d50:	00 
 8048d51:	0f 84 bf 00 00 00    	je     8048e16 <phase_3+0x154>
 8048d57:	e8 0e 09 00 00       	call   804966a <explode_bomb>
 8048d5c:	b8 65 00 00 00       	mov    $0x65,%eax
 8048d61:	e9 b0 00 00 00       	jmp    8048e16 <phase_3+0x154>
 8048d66:	b8 6d 00 00 00       	mov    $0x6d,%eax
 8048d6b:	81 7c 24 28 b0 07 00 	cmpl   $0x7b0,0x28(%esp)
 8048d72:	00 
 8048d73:	0f 84 9d 00 00 00    	je     8048e16 <phase_3+0x154>
 8048d79:	e8 ec 08 00 00       	call   804966a <explode_bomb>
 8048d7e:	b8 6d 00 00 00       	mov    $0x6d,%eax
 8048d83:	e9 8e 00 00 00       	jmp    8048e16 <phase_3+0x154>
 8048d88:	b8 68 00 00 00       	mov    $0x68,%eax
 8048d8d:	81 7c 24 28 1c 0c 00 	cmpl   $0xc1c,0x28(%esp)
 8048d94:	00 
 8048d95:	74 7f                	je     8048e16 <phase_3+0x154>
 8048d97:	e8 ce 08 00 00       	call   804966a <explode_bomb>
 8048d9c:	b8 68 00 00 00       	mov    $0x68,%eax
 8048da1:	eb 73                	jmp    8048e16 <phase_3+0x154>
 8048da3:	b8 68 00 00 00       	mov    $0x68,%eax
 8048da8:	83 7c 24 28 38       	cmpl   $0x38,0x28(%esp)
 8048dad:	74 67                	je     8048e16 <phase_3+0x154>
 8048daf:	e8 b6 08 00 00       	call   804966a <explode_bomb>
 8048db4:	b8 68 00 00 00       	mov    $0x68,%eax
 8048db9:	eb 5b                	jmp    8048e16 <phase_3+0x154>
 8048dbb:	b8 73 00 00 00       	mov    $0x73,%eax
 8048dc0:	81 7c 24 28 2d 0e 00 	cmpl   $0xe2d,0x28(%esp)
 8048dc7:	00 
 8048dc8:	74 4c                	je     8048e16 <phase_3+0x154>
 8048dca:	e8 9b 08 00 00       	call   804966a <explode_bomb>
 8048dcf:	b8 73 00 00 00       	mov    $0x73,%eax
 8048dd4:	eb 40                	jmp    8048e16 <phase_3+0x154>
 8048dd6:	b8 61 00 00 00       	mov    $0x61,%eax
 8048ddb:	81 7c 24 28 ed 0a 00 	cmpl   $0xaed,0x28(%esp)
 8048de2:	00 
 8048de3:	74 31                	je     8048e16 <phase_3+0x154>
 8048de5:	e8 80 08 00 00       	call   804966a <explode_bomb>
 8048dea:	b8 61 00 00 00       	mov    $0x61,%eax
 8048def:	eb 25                	jmp    8048e16 <phase_3+0x154>
 8048df1:	b8 79 00 00 00       	mov    $0x79,%eax
 8048df6:	81 7c 24 28 d2 05 00 	cmpl   $0x5d2,0x28(%esp)
 8048dfd:	00 
 8048dfe:	74 16                	je     8048e16 <phase_3+0x154>
 8048e00:	e8 65 08 00 00       	call   804966a <explode_bomb>
 8048e05:	b8 79 00 00 00       	mov    $0x79,%eax
 8048e0a:	eb 0a                	jmp    8048e16 <phase_3+0x154>
 8048e0c:	e8 59 08 00 00       	call   804966a <explode_bomb>
 8048e11:	b8 64 00 00 00       	mov    $0x64,%eax
 8048e16:	3a 44 24 2f          	cmp    0x2f(%esp),%al
 8048e1a:	74 05                	je     8048e21 <phase_3+0x15f>
 8048e1c:	e8 49 08 00 00       	call   804966a <explode_bomb>
 8048e21:	83 c4 3c             	add    $0x3c,%esp
 8048e24:	c3                   	ret    

08048e25 <func4>:
 8048e25:	83 ec 1c             	sub    $0x1c,%esp
 8048e28:	89 5c 24 14          	mov    %ebx,0x14(%esp)
 8048e2c:	89 74 24 18          	mov    %esi,0x18(%esp)
 8048e30:	8b 54 24 20          	mov    0x20(%esp),%edx
 8048e34:	8b 44 24 24          	mov    0x24(%esp),%eax
 8048e38:	8b 5c 24 28          	mov    0x28(%esp),%ebx
 8048e3c:	89 d9                	mov    %ebx,%ecx
 8048e3e:	29 c1                	sub    %eax,%ecx
 8048e40:	89 ce                	mov    %ecx,%esi
 8048e42:	c1 ee 1f             	shr    $0x1f,%esi
 8048e45:	01 f1                	add    %esi,%ecx
 8048e47:	d1 f9                	sar    %ecx
 8048e49:	01 c1                	add    %eax,%ecx
 8048e4b:	39 d1                	cmp    %edx,%ecx
 8048e4d:	7e 17                	jle    8048e66 <func4+0x41>
 8048e4f:	83 e9 01             	sub    $0x1,%ecx
 8048e52:	89 4c 24 08          	mov    %ecx,0x8(%esp)
 8048e56:	89 44 24 04          	mov    %eax,0x4(%esp)
 8048e5a:	89 14 24             	mov    %edx,(%esp)
 8048e5d:	e8 c3 ff ff ff       	call   8048e25 <func4>
 8048e62:	01 c0                	add    %eax,%eax
 8048e64:	eb 20                	jmp    8048e86 <func4+0x61>
 8048e66:	b8 00 00 00 00       	mov    $0x0,%eax
 8048e6b:	39 d1                	cmp    %edx,%ecx
 8048e6d:	7d 17                	jge    8048e86 <func4+0x61>
 8048e6f:	89 5c 24 08          	mov    %ebx,0x8(%esp)
 8048e73:	83 c1 01             	add    $0x1,%ecx
 8048e76:	89 4c 24 04          	mov    %ecx,0x4(%esp)
 8048e7a:	89 14 24             	mov    %edx,(%esp)
 8048e7d:	e8 a3 ff ff ff       	call   8048e25 <func4>
 8048e82:	8d 44 00 01          	lea    0x1(%eax,%eax,1),%eax
 8048e86:	8b 5c 24 14          	mov    0x14(%esp),%ebx
 8048e8a:	8b 74 24 18          	mov    0x18(%esp),%esi
 8048e8e:	83 c4 1c             	add    $0x1c,%esp
 8048e91:	c3                   	ret    

08048e92 <phase_4>:
 8048e92:	83 ec 2c             	sub    $0x2c,%esp
 8048e95:	8d 44 24 1c          	lea    0x1c(%esp),%eax
 8048e99:	89 44 24 0c          	mov    %eax,0xc(%esp)
 8048e9d:	8d 44 24 18          	lea    0x18(%esp),%eax
 8048ea1:	89 44 24 08          	mov    %eax,0x8(%esp)
 8048ea5:	c7 44 24 04 e7 aa 04 	movl   $0x804aae7,0x4(%esp)
 8048eac:	08 
 8048ead:	8b 44 24 30          	mov    0x30(%esp),%eax
 8048eb1:	89 04 24             	mov    %eax,(%esp)
 8048eb4:	e8 97 fa ff ff       	call   8048950 <__isoc99_sscanf@plt>
 8048eb9:	83 f8 02             	cmp    $0x2,%eax
 8048ebc:	75 0d                	jne    8048ecb <phase_4+0x39>
 8048ebe:	8b 44 24 18          	mov    0x18(%esp),%eax
 8048ec2:	85 c0                	test   %eax,%eax
 8048ec4:	78 05                	js     8048ecb <phase_4+0x39>
 8048ec6:	83 f8 0e             	cmp    $0xe,%eax
 8048ec9:	7e 05                	jle    8048ed0 <phase_4+0x3e>
 8048ecb:	e8 9a 07 00 00       	call   804966a <explode_bomb>
 8048ed0:	c7 44 24 08 0e 00 00 	movl   $0xe,0x8(%esp)
 8048ed7:	00 
 8048ed8:	c7 44 24 04 00 00 00 	movl   $0x0,0x4(%esp)
 8048edf:	00 
 8048ee0:	8b 44 24 18          	mov    0x18(%esp),%eax
 8048ee4:	89 04 24             	mov    %eax,(%esp)
 8048ee7:	e8 39 ff ff ff       	call   8048e25 <func4>
 8048eec:	85 c0                	test   %eax,%eax
 8048eee:	75 07                	jne    8048ef7 <phase_4+0x65>
 8048ef0:	83 7c 24 1c 00       	cmpl   $0x0,0x1c(%esp)
 8048ef5:	74 05                	je     8048efc <phase_4+0x6a>
 8048ef7:	e8 6e 07 00 00       	call   804966a <explode_bomb>
 8048efc:	83 c4 2c             	add    $0x2c,%esp
 8048eff:	c3                   	ret    

08048f00 <phase_5>:
 8048f00:	56                   	push   %esi
 8048f01:	53                   	push   %ebx
 8048f02:	83 ec 14             	sub    $0x14,%esp
 8048f05:	8b 5c 24 20          	mov    0x20(%esp),%ebx
 8048f09:	89 1c 24             	mov    %ebx,(%esp)
 8048f0c:	e8 4e 02 00 00       	call   804915f <string_length>
 8048f11:	83 f8 06             	cmp    $0x6,%eax
 8048f14:	74 05                	je     8048f1b <phase_5+0x1b>
 8048f16:	e8 4f 07 00 00       	call   804966a <explode_bomb>
 8048f1b:	b9 00 00 00 00       	mov    $0x0,%ecx
 8048f20:	ba 00 00 00 00       	mov    $0x0,%edx
 8048f25:	0f be 04 13          	movsbl (%ebx,%edx,1),%eax
 8048f29:	8d 70 a9             	lea    -0x57(%eax),%esi
 8048f2c:	83 f8 61             	cmp    $0x61,%eax
 8048f2f:	0f 4d c6             	cmovge %esi,%eax
 8048f32:	83 e0 0f             	and    $0xf,%eax
 8048f35:	03 0c 85 e0 a9 04 08 	add    0x804a9e0(,%eax,4),%ecx
 8048f3c:	83 c2 01             	add    $0x1,%edx
 8048f3f:	83 fa 06             	cmp    $0x6,%edx
 8048f42:	75 e1                	jne    8048f25 <phase_5+0x25>
 8048f44:	83 f9 2e             	cmp    $0x2e,%ecx
 8048f47:	74 05                	je     8048f4e <phase_5+0x4e>
 8048f49:	e8 1c 07 00 00       	call   804966a <explode_bomb>
 8048f4e:	83 c4 14             	add    $0x14,%esp
 8048f51:	5b                   	pop    %ebx
 8048f52:	5e                   	pop    %esi
 8048f53:	c3                   	ret    

08048f54 <phase_6>:
 8048f54:	56                   	push   %esi
 8048f55:	53                   	push   %ebx
 8048f56:	83 ec 44             	sub    $0x44,%esp
 8048f59:	8d 44 24 10          	lea    0x10(%esp),%eax
 8048f5d:	89 44 24 04          	mov    %eax,0x4(%esp)
 8048f61:	8b 44 24 50          	mov    0x50(%esp),%eax
 8048f65:	89 04 24             	mov    %eax,(%esp)
 8048f68:	e8 3e 08 00 00       	call   80497ab <read_six_numbers>
 8048f6d:	be 00 00 00 00       	mov    $0x0,%esi
 8048f72:	8b 44 b4 10          	mov    0x10(%esp,%esi,4),%eax
 8048f76:	83 e8 01             	sub    $0x1,%eax
 8048f79:	83 f8 05             	cmp    $0x5,%eax
 8048f7c:	76 05                	jbe    8048f83 <phase_6+0x2f>
 8048f7e:	e8 e7 06 00 00       	call   804966a <explode_bomb>
 8048f83:	83 c6 01             	add    $0x1,%esi
 8048f86:	83 fe 06             	cmp    $0x6,%esi
 8048f89:	74 33                	je     8048fbe <phase_6+0x6a>
 8048f8b:	89 f3                	mov    %esi,%ebx
 8048f8d:	8b 44 9c 10          	mov    0x10(%esp,%ebx,4),%eax
 8048f91:	39 44 b4 0c          	cmp    %eax,0xc(%esp,%esi,4)
 8048f95:	75 05                	jne    8048f9c <phase_6+0x48>
 8048f97:	e8 ce 06 00 00       	call   804966a <explode_bomb>
 8048f9c:	83 c3 01             	add    $0x1,%ebx
 8048f9f:	83 fb 05             	cmp    $0x5,%ebx
 8048fa2:	7e e9                	jle    8048f8d <phase_6+0x39>
 8048fa4:	eb cc                	jmp    8048f72 <phase_6+0x1e>
 8048fa6:	8b 52 08             	mov    0x8(%edx),%edx
 8048fa9:	83 c0 01             	add    $0x1,%eax
 8048fac:	39 c8                	cmp    %ecx,%eax
 8048fae:	75 f6                	jne    8048fa6 <phase_6+0x52>
 8048fb0:	89 54 b4 28          	mov    %edx,0x28(%esp,%esi,4)
 8048fb4:	83 c3 01             	add    $0x1,%ebx
 8048fb7:	83 fb 06             	cmp    $0x6,%ebx
 8048fba:	75 07                	jne    8048fc3 <phase_6+0x6f>
 8048fbc:	eb 1c                	jmp    8048fda <phase_6+0x86>
 8048fbe:	bb 00 00 00 00       	mov    $0x0,%ebx
 8048fc3:	89 de                	mov    %ebx,%esi
 8048fc5:	8b 4c 9c 10          	mov    0x10(%esp,%ebx,4),%ecx
 8048fc9:	b8 01 00 00 00       	mov    $0x1,%eax
 8048fce:	ba 74 d1 04 08       	mov    $0x804d174,%edx
 8048fd3:	83 f9 01             	cmp    $0x1,%ecx
 8048fd6:	7f ce                	jg     8048fa6 <phase_6+0x52>
 8048fd8:	eb d6                	jmp    8048fb0 <phase_6+0x5c>
 8048fda:	8b 5c 24 28          	mov    0x28(%esp),%ebx
 8048fde:	8b 44 24 2c          	mov    0x2c(%esp),%eax
 8048fe2:	89 43 08             	mov    %eax,0x8(%ebx)
 8048fe5:	8b 54 24 30          	mov    0x30(%esp),%edx
 8048fe9:	89 50 08             	mov    %edx,0x8(%eax)
 8048fec:	8b 44 24 34          	mov    0x34(%esp),%eax
 8048ff0:	89 42 08             	mov    %eax,0x8(%edx)
 8048ff3:	8b 54 24 38          	mov    0x38(%esp),%edx
 8048ff7:	89 50 08             	mov    %edx,0x8(%eax)
 8048ffa:	8b 44 24 3c          	mov    0x3c(%esp),%eax
 8048ffe:	89 42 08             	mov    %eax,0x8(%edx)
 8049001:	c7 40 08 00 00 00 00 	movl   $0x0,0x8(%eax)
 8049008:	be 05 00 00 00       	mov    $0x5,%esi
 804900d:	8b 43 08             	mov    0x8(%ebx),%eax
 8049010:	8b 10                	mov    (%eax),%edx
 8049012:	39 13                	cmp    %edx,(%ebx)
 8049014:	7e 05                	jle    804901b <phase_6+0xc7>
 8049016:	e8 4f 06 00 00       	call   804966a <explode_bomb>
 804901b:	8b 5b 08             	mov    0x8(%ebx),%ebx
 804901e:	83 ee 01             	sub    $0x1,%esi
 8049021:	75 ea                	jne    804900d <phase_6+0xb9>
 8049023:	83 c4 44             	add    $0x44,%esp
 8049026:	5b                   	pop    %ebx
 8049027:	5e                   	pop    %esi
 8049028:	c3                   	ret    

08049029 <fun7>:
 8049029:	53                   	push   %ebx
 804902a:	83 ec 18             	sub    $0x18,%esp
 804902d:	8b 54 24 20          	mov    0x20(%esp),%edx
 8049031:	8b 4c 24 24          	mov    0x24(%esp),%ecx
 8049035:	85 d2                	test   %edx,%edx
 8049037:	74 37                	je     8049070 <fun7+0x47>
 8049039:	8b 5a 08             	mov    0x8(%edx),%ebx
 804903c:	39 cb                	cmp    %ecx,%ebx
 804903e:	7e 12                	jle    8049052 <fun7+0x29>
 8049040:	89 4c 24 04          	mov    %ecx,0x4(%esp)
 8049044:	8b 02                	mov    (%edx),%eax
 8049046:	89 04 24             	mov    %eax,(%esp)
 8049049:	e8 db ff ff ff       	call   8049029 <fun7>
 804904e:	01 c0                	add    %eax,%eax
 8049050:	eb 23                	jmp    8049075 <fun7+0x4c>
 8049052:	b8 00 00 00 00       	mov    $0x0,%eax
 8049057:	39 cb                	cmp    %ecx,%ebx
 8049059:	74 1a                	je     8049075 <fun7+0x4c>
 804905b:	89 4c 24 04          	mov    %ecx,0x4(%esp)
 804905f:	8b 42 04             	mov    0x4(%edx),%eax
 8049062:	89 04 24             	mov    %eax,(%esp)
 8049065:	e8 bf ff ff ff       	call   8049029 <fun7>
 804906a:	8d 44 00 01          	lea    0x1(%eax,%eax,1),%eax
 804906e:	eb 05                	jmp    8049075 <fun7+0x4c>
 8049070:	b8 ff ff ff ff       	mov    $0xffffffff,%eax
 8049075:	83 c4 18             	add    $0x18,%esp
 8049078:	5b                   	pop    %ebx
 8049079:	c3                   	ret    

0804907a <secret_phase>:
 804907a:	53                   	push   %ebx
 804907b:	83 ec 18             	sub    $0x18,%esp
 804907e:	e8 1a 06 00 00       	call   804969d <read_line>
 8049083:	c7 44 24 08 0a 00 00 	movl   $0xa,0x8(%esp)
 804908a:	00 
 804908b:	c7 44 24 04 00 00 00 	movl   $0x0,0x4(%esp)
 8049092:	00 
 8049093:	89 04 24             	mov    %eax,(%esp)
 8049096:	e8 45 f9 ff ff       	call   80489e0 <strtol@plt>
 804909b:	89 c3                	mov    %eax,%ebx
 804909d:	8d 40 fd             	lea    -0x3(%eax),%eax
 80490a0:	3d 97 00 00 00       	cmp    $0x97,%eax
 80490a5:	76 05                	jbe    80490ac <secret_phase+0x32>
 80490a7:	e8 be 05 00 00       	call   804966a <explode_bomb>
 80490ac:	89 5c 24 04          	mov    %ebx,0x4(%esp)
 80490b0:	c7 04 24 c0 d0 04 08 	movl   $0x804d0c0,(%esp)
 80490b7:	e8 6d ff ff ff       	call   8049029 <fun7>
 80490bc:	83 f8 07             	cmp    $0x7,%eax
 80490bf:	74 05                	je     80490c6 <secret_phase+0x4c>
 80490c1:	e8 a4 05 00 00       	call   804966a <explode_bomb>
 80490c6:	c7 04 24 84 a7 04 08 	movl   $0x804a784,(%esp)
 80490cd:	e8 fe f7 ff ff       	call   80488d0 <puts@plt>
 80490d2:	e8 24 07 00 00       	call   80497fb <phase_defused>
 80490d7:	83 c4 18             	add    $0x18,%esp
 80490da:	5b                   	pop    %ebx
 80490db:	c3                   	ret    
 80490dc:	90                   	nop
 80490dd:	90                   	nop
 80490de:	90                   	nop
 80490df:	90                   	nop

080490e0 <sig_handler>:
 80490e0:	83 ec 1c             	sub    $0x1c,%esp
 80490e3:	c7 44 24 04 20 aa 04 	movl   $0x804aa20,0x4(%esp)
 80490ea:	08 
 80490eb:	c7 04 24 01 00 00 00 	movl   $0x1,(%esp)
 80490f2:	e8 99 f8 ff ff       	call   8048990 <__printf_chk@plt>
 80490f7:	a1 00 d8 04 08       	mov    0x804d800,%eax
 80490fc:	89 04 24             	mov    %eax,(%esp)
 80490ff:	e8 2c f7 ff ff       	call   8048830 <fflush@plt>
 8049104:	c7 04 24 01 00 00 00 	movl   $0x1,(%esp)
 804910b:	e8 50 f7 ff ff       	call   8048860 <sleep@plt>
 8049110:	c7 04 24 30 aa 04 08 	movl   $0x804aa30,(%esp)
 8049117:	e8 b4 f7 ff ff       	call   80488d0 <puts@plt>
 804911c:	c7 04 24 01 00 00 00 	movl   $0x1,(%esp)
 8049123:	e8 38 f7 ff ff       	call   8048860 <sleep@plt>
 8049128:	c7 04 24 10 00 00 00 	movl   $0x10,(%esp)
 804912f:	e8 dc f7 ff ff       	call   8048910 <exit@plt>

08049134 <invalid_phase>:
 8049134:	83 ec 1c             	sub    $0x1c,%esp
 8049137:	8b 44 24 20          	mov    0x20(%esp),%eax
 804913b:	89 44 24 08          	mov    %eax,0x8(%esp)
 804913f:	c7 44 24 04 3b aa 04 	movl   $0x804aa3b,0x4(%esp)
 8049146:	08 
 8049147:	c7 04 24 01 00 00 00 	movl   $0x1,(%esp)
 804914e:	e8 3d f8 ff ff       	call   8048990 <__printf_chk@plt>
 8049153:	c7 04 24 08 00 00 00 	movl   $0x8,(%esp)
 804915a:	e8 b1 f7 ff ff       	call   8048910 <exit@plt>

0804915f <string_length>:
 804915f:	8b 54 24 04          	mov    0x4(%esp),%edx
 8049163:	b8 00 00 00 00       	mov    $0x0,%eax
 8049168:	80 3a 00             	cmpb   $0x0,(%edx)
 804916b:	74 09                	je     8049176 <string_length+0x17>
 804916d:	83 c0 01             	add    $0x1,%eax
 8049170:	80 3c 02 00          	cmpb   $0x0,(%edx,%eax,1)
 8049174:	75 f7                	jne    804916d <string_length+0xe>
 8049176:	f3 c3                	repz ret 

08049178 <strings_not_equal>:
 8049178:	83 ec 10             	sub    $0x10,%esp
 804917b:	89 5c 24 04          	mov    %ebx,0x4(%esp)
 804917f:	89 74 24 08          	mov    %esi,0x8(%esp)
 8049183:	89 7c 24 0c          	mov    %edi,0xc(%esp)
 8049187:	8b 5c 24 14          	mov    0x14(%esp),%ebx
 804918b:	8b 74 24 18          	mov    0x18(%esp),%esi
 804918f:	89 1c 24             	mov    %ebx,(%esp)
 8049192:	e8 c8 ff ff ff       	call   804915f <string_length>
 8049197:	89 c7                	mov    %eax,%edi
 8049199:	89 34 24             	mov    %esi,(%esp)
 804919c:	e8 be ff ff ff       	call   804915f <string_length>
 80491a1:	ba 01 00 00 00       	mov    $0x1,%edx
 80491a6:	39 c7                	cmp    %eax,%edi
 80491a8:	75 33                	jne    80491dd <strings_not_equal+0x65>
 80491aa:	0f b6 03             	movzbl (%ebx),%eax
 80491ad:	b2 00                	mov    $0x0,%dl
 80491af:	84 c0                	test   %al,%al
 80491b1:	74 2a                	je     80491dd <strings_not_equal+0x65>
 80491b3:	b2 01                	mov    $0x1,%dl
 80491b5:	3a 06                	cmp    (%esi),%al
 80491b7:	75 24                	jne    80491dd <strings_not_equal+0x65>
 80491b9:	b8 00 00 00 00       	mov    $0x0,%eax
 80491be:	eb 08                	jmp    80491c8 <strings_not_equal+0x50>
 80491c0:	83 c0 01             	add    $0x1,%eax
 80491c3:	3a 14 06             	cmp    (%esi,%eax,1),%dl
 80491c6:	75 10                	jne    80491d8 <strings_not_equal+0x60>
 80491c8:	0f b6 54 03 01       	movzbl 0x1(%ebx,%eax,1),%edx
 80491cd:	84 d2                	test   %dl,%dl
 80491cf:	75 ef                	jne    80491c0 <strings_not_equal+0x48>
 80491d1:	ba 00 00 00 00       	mov    $0x0,%edx
 80491d6:	eb 05                	jmp    80491dd <strings_not_equal+0x65>
 80491d8:	ba 01 00 00 00       	mov    $0x1,%edx
 80491dd:	89 d0                	mov    %edx,%eax
 80491df:	8b 5c 24 04          	mov    0x4(%esp),%ebx
 80491e3:	8b 74 24 08          	mov    0x8(%esp),%esi
 80491e7:	8b 7c 24 0c          	mov    0xc(%esp),%edi
 80491eb:	83 c4 10             	add    $0x10,%esp
 80491ee:	c3                   	ret    

080491ef <strings_check>:
 80491ef:	57                   	push   %edi
 80491f0:	56                   	push   %esi
 80491f1:	53                   	push   %ebx
 80491f2:	83 ec 20             	sub    $0x20,%esp
 80491f5:	8b 74 24 30          	mov    0x30(%esp),%esi
 80491f9:	8b 5c 24 34          	mov    0x34(%esp),%ebx
 80491fd:	89 1c 24             	mov    %ebx,(%esp)
 8049200:	e8 5a ff ff ff       	call   804915f <string_length>
 8049205:	89 c7                	mov    %eax,%edi
 8049207:	89 34 24             	mov    %esi,(%esp)
 804920a:	e8 50 ff ff ff       	call   804915f <string_length>
 804920f:	ba 01 00 00 00       	mov    $0x1,%edx
 8049214:	39 c7                	cmp    %eax,%edi
 8049216:	7d 65                	jge    804927d <strings_check+0x8e>
 8049218:	0f b6 03             	movzbl (%ebx),%eax
 804921b:	84 c0                	test   %al,%al
 804921d:	74 18                	je     8049237 <strings_check+0x48>
 804921f:	3a 06                	cmp    (%esi),%al
 8049221:	74 09                	je     804922c <strings_check+0x3d>
 8049223:	eb 58                	jmp    804927d <strings_check+0x8e>
 8049225:	83 c3 01             	add    $0x1,%ebx
 8049228:	3a 06                	cmp    (%esi),%al
 804922a:	75 4c                	jne    8049278 <strings_check+0x89>
 804922c:	83 c6 01             	add    $0x1,%esi
 804922f:	0f b6 43 01          	movzbl 0x1(%ebx),%eax
 8049233:	84 c0                	test   %al,%al
 8049235:	75 ee                	jne    8049225 <strings_check+0x36>
 8049237:	ba 01 00 00 00       	mov    $0x1,%edx
 804923c:	80 3e 20             	cmpb   $0x20,(%esi)
 804923f:	75 3c                	jne    804927d <strings_check+0x8e>
 8049241:	80 7e 01 00          	cmpb   $0x0,0x1(%esi)
 8049245:	74 36                	je     804927d <strings_check+0x8e>
 8049247:	8d 44 24 1c          	lea    0x1c(%esp),%eax
 804924b:	89 44 24 08          	mov    %eax,0x8(%esp)
 804924f:	c7 44 24 04 b5 a7 04 	movl   $0x804a7b5,0x4(%esp)
 8049256:	08 
 8049257:	83 c6 01             	add    $0x1,%esi
 804925a:	89 34 24             	mov    %esi,(%esp)
 804925d:	e8 ee f6 ff ff       	call   8048950 <__isoc99_sscanf@plt>
 8049262:	ba 01 00 00 00       	mov    $0x1,%edx
 8049267:	83 f8 01             	cmp    $0x1,%eax
 804926a:	75 11                	jne    804927d <strings_check+0x8e>
 804926c:	3b 7c 24 1c          	cmp    0x1c(%esp),%edi
 8049270:	0f 95 c2             	setne  %dl
 8049273:	0f b6 d2             	movzbl %dl,%edx
 8049276:	eb 05                	jmp    804927d <strings_check+0x8e>
 8049278:	ba 01 00 00 00       	mov    $0x1,%edx
 804927d:	89 d0                	mov    %edx,%eax
 804927f:	83 c4 20             	add    $0x20,%esp
 8049282:	5b                   	pop    %ebx
 8049283:	5e                   	pop    %esi
 8049284:	5f                   	pop    %edi
 8049285:	c3                   	ret    

08049286 <strings_close>:
 8049286:	57                   	push   %edi
 8049287:	56                   	push   %esi
 8049288:	53                   	push   %ebx
 8049289:	83 ec 04             	sub    $0x4,%esp
 804928c:	8b 5c 24 14          	mov    0x14(%esp),%ebx
 8049290:	8b 74 24 18          	mov    0x18(%esp),%esi
 8049294:	89 1c 24             	mov    %ebx,(%esp)
 8049297:	e8 c3 fe ff ff       	call   804915f <string_length>
 804929c:	89 c7                	mov    %eax,%edi
 804929e:	89 34 24             	mov    %esi,(%esp)
 80492a1:	e8 b9 fe ff ff       	call   804915f <string_length>
 80492a6:	ba 01 00 00 00       	mov    $0x1,%edx
 80492ab:	39 c7                	cmp    %eax,%edi
 80492ad:	75 46                	jne    80492f5 <strings_close+0x6f>
 80492af:	0f b6 03             	movzbl (%ebx),%eax
 80492b2:	b2 00                	mov    $0x0,%dl
 80492b4:	84 c0                	test   %al,%al
 80492b6:	74 3d                	je     80492f5 <strings_close+0x6f>
 80492b8:	0f be c0             	movsbl %al,%eax
 80492bb:	83 c0 01             	add    $0x1,%eax
 80492be:	0f be 0e             	movsbl (%esi),%ecx
 80492c1:	b2 01                	mov    $0x1,%dl
 80492c3:	39 c8                	cmp    %ecx,%eax
 80492c5:	75 2e                	jne    80492f5 <strings_close+0x6f>
 80492c7:	b8 00 00 00 00       	mov    $0x0,%eax
 80492cc:	eb 12                	jmp    80492e0 <strings_close+0x5a>
 80492ce:	0f be 4c 06 01       	movsbl 0x1(%esi,%eax,1),%ecx
 80492d3:	83 c0 01             	add    $0x1,%eax
 80492d6:	0f be d2             	movsbl %dl,%edx
 80492d9:	83 c2 01             	add    $0x1,%edx
 80492dc:	39 ca                	cmp    %ecx,%edx
 80492de:	75 10                	jne    80492f0 <strings_close+0x6a>
 80492e0:	0f b6 54 03 01       	movzbl 0x1(%ebx,%eax,1),%edx
 80492e5:	84 d2                	test   %dl,%dl
 80492e7:	75 e5                	jne    80492ce <strings_close+0x48>
 80492e9:	ba 00 00 00 00       	mov    $0x0,%edx
 80492ee:	eb 05                	jmp    80492f5 <strings_close+0x6f>
 80492f0:	ba 01 00 00 00       	mov    $0x1,%edx
 80492f5:	89 d0                	mov    %edx,%eax
 80492f7:	83 c4 04             	add    $0x4,%esp
 80492fa:	5b                   	pop    %ebx
 80492fb:	5e                   	pop    %esi
 80492fc:	5f                   	pop    %edi
 80492fd:	c3                   	ret    

080492fe <initialize_bomb>:
 80492fe:	56                   	push   %esi
 80492ff:	53                   	push   %ebx
 8049300:	81 ec 84 20 00 00    	sub    $0x2084,%esp
 8049306:	65 a1 14 00 00 00    	mov    %gs:0x14,%eax
 804930c:	89 84 24 7c 20 00 00 	mov    %eax,0x207c(%esp)
 8049313:	31 c0                	xor    %eax,%eax
 8049315:	c7 44 24 04 e0 90 04 	movl   $0x80490e0,0x4(%esp)
 804931c:	08 
 804931d:	c7 04 24 02 00 00 00 	movl   $0x2,(%esp)
 8049324:	e8 27 f5 ff ff       	call   8048850 <signal@plt>
 8049329:	c6 84 24 7b 20 00 00 	movb   $0x0,0x207b(%esp)
 8049330:	00 
 8049331:	c7 44 24 04 40 00 00 	movl   $0x40,0x4(%esp)
 8049338:	00 
 8049339:	8d 84 24 3c 20 00 00 	lea    0x203c(%esp),%eax
 8049340:	89 04 24             	mov    %eax,(%esp)
 8049343:	e8 68 f5 ff ff       	call   80488b0 <gethostname@plt>
 8049348:	85 c0                	test   %eax,%eax
 804934a:	74 18                	je     8049364 <initialize_bomb+0x66>
 804934c:	c7 04 24 28 af 04 08 	movl   $0x804af28,(%esp)
 8049353:	e8 78 f5 ff ff       	call   80488d0 <puts@plt>
 8049358:	c7 04 24 08 00 00 00 	movl   $0x8,(%esp)
 804935f:	e8 ac f5 ff ff       	call   8048910 <exit@plt>
 8049364:	b9 00 00 00 00       	mov    $0x0,%ecx
 8049369:	ba 20 00 00 00       	mov    $0x20,%edx
 804936e:	b8 00 00 00 00       	mov    $0x0,%eax
 8049373:	89 4c 04 18          	mov    %ecx,0x18(%esp,%eax,1)
 8049377:	83 c0 04             	add    $0x4,%eax
 804937a:	39 d0                	cmp    %edx,%eax
 804937c:	72 f5                	jb     8049373 <initialize_bomb+0x75>
 804937e:	c7 44 24 20 01 00 00 	movl   $0x1,0x20(%esp)
 8049385:	00 
 8049386:	c7 44 24 18 02 00 00 	movl   $0x2,0x18(%esp)
 804938d:	00 
 804938e:	8d 44 24 38          	lea    0x38(%esp),%eax
 8049392:	89 44 24 0c          	mov    %eax,0xc(%esp)
 8049396:	8d 44 24 18          	lea    0x18(%esp),%eax
 804939a:	89 44 24 08          	mov    %eax,0x8(%esp)
 804939e:	c7 44 24 04 00 00 00 	movl   $0x0,0x4(%esp)
 80493a5:	00 
 80493a6:	8d 84 24 3c 20 00 00 	lea    0x203c(%esp),%eax
 80493ad:	89 04 24             	mov    %eax,(%esp)
 80493b0:	e8 fb f5 ff ff       	call   80489b0 <getaddrinfo@plt>
 80493b5:	85 c0                	test   %eax,%eax
 80493b7:	74 35                	je     80493ee <initialize_bomb+0xf0>
 80493b9:	89 04 24             	mov    %eax,(%esp)
 80493bc:	e8 bf f5 ff ff       	call   8048980 <gai_strerror@plt>
 80493c1:	89 44 24 0c          	mov    %eax,0xc(%esp)
 80493c5:	c7 44 24 08 54 af 04 	movl   $0x804af54,0x8(%esp)
 80493cc:	08 
 80493cd:	c7 44 24 04 01 00 00 	movl   $0x1,0x4(%esp)
 80493d4:	00 
 80493d5:	a1 e0 d7 04 08       	mov    0x804d7e0,%eax
 80493da:	89 04 24             	mov    %eax,(%esp)
 80493dd:	e8 de f5 ff ff       	call   80489c0 <__fprintf_chk@plt>
 80493e2:	c7 04 24 08 00 00 00 	movl   $0x8,(%esp)
 80493e9:	e8 22 f5 ff ff       	call   8048910 <exit@plt>
 80493ee:	8b 44 24 38          	mov    0x38(%esp),%eax
 80493f2:	8b 70 18             	mov    0x18(%eax),%esi
 80493f5:	85 f6                	test   %esi,%esi
 80493f7:	74 18                	je     8049411 <initialize_bomb+0x113>
 80493f9:	80 3e 00             	cmpb   $0x0,(%esi)
 80493fc:	74 13                	je     8049411 <initialize_bomb+0x113>
 80493fe:	a1 e0 d5 04 08       	mov    0x804d5e0,%eax
 8049403:	bb 00 00 00 00       	mov    $0x0,%ebx
 8049408:	85 c0                	test   %eax,%eax
 804940a:	75 36                	jne    8049442 <initialize_bomb+0x144>
 804940c:	e9 89 00 00 00       	jmp    804949a <initialize_bomb+0x19c>
 8049411:	a1 e0 d7 04 08       	mov    0x804d7e0,%eax
 8049416:	89 44 24 0c          	mov    %eax,0xc(%esp)
 804941a:	c7 44 24 08 21 00 00 	movl   $0x21,0x8(%esp)
 8049421:	00 
 8049422:	c7 44 24 04 01 00 00 	movl   $0x1,0x4(%esp)
 8049429:	00 
 804942a:	c7 04 24 80 af 04 08 	movl   $0x804af80,(%esp)
 8049431:	e8 5a f4 ff ff       	call   8048890 <fwrite@plt>
 8049436:	c7 04 24 08 00 00 00 	movl   $0x8,(%esp)
 804943d:	e8 ce f4 ff ff       	call   8048910 <exit@plt>
 8049442:	89 74 24 04          	mov    %esi,0x4(%esp)
 8049446:	89 04 24             	mov    %eax,(%esp)
 8049449:	e8 f2 f4 ff ff       	call   8048940 <strcasecmp@plt>
 804944e:	85 c0                	test   %eax,%eax
 8049450:	74 10                	je     8049462 <initialize_bomb+0x164>
 8049452:	83 c3 01             	add    $0x1,%ebx
 8049455:	8b 04 9d e0 d5 04 08 	mov    0x804d5e0(,%ebx,4),%eax
 804945c:	85 c0                	test   %eax,%eax
 804945e:	75 e2                	jne    8049442 <initialize_bomb+0x144>
 8049460:	eb 38                	jmp    804949a <initialize_bomb+0x19c>
 8049462:	8d 44 24 3c          	lea    0x3c(%esp),%eax
 8049466:	89 04 24             	mov    %eax,(%esp)
 8049469:	e8 13 0e 00 00       	call   804a281 <init_driver>
 804946e:	85 c0                	test   %eax,%eax
 8049470:	79 4c                	jns    80494be <initialize_bomb+0x1c0>
 8049472:	8d 44 24 3c          	lea    0x3c(%esp),%eax
 8049476:	89 44 24 08          	mov    %eax,0x8(%esp)
 804947a:	c7 44 24 04 4c aa 04 	movl   $0x804aa4c,0x4(%esp)
 8049481:	08 
 8049482:	c7 04 24 01 00 00 00 	movl   $0x1,(%esp)
 8049489:	e8 02 f5 ff ff       	call   8048990 <__printf_chk@plt>
 804948e:	c7 04 24 08 00 00 00 	movl   $0x8,(%esp)
 8049495:	e8 76 f4 ff ff       	call   8048910 <exit@plt>
 804949a:	89 74 24 08          	mov    %esi,0x8(%esp)
 804949e:	c7 44 24 04 a4 af 04 	movl   $0x804afa4,0x4(%esp)
 80494a5:	08 
 80494a6:	c7 04 24 01 00 00 00 	movl   $0x1,(%esp)
 80494ad:	e8 de f4 ff ff       	call   8048990 <__printf_chk@plt>
 80494b2:	c7 04 24 08 00 00 00 	movl   $0x8,(%esp)
 80494b9:	e8 52 f4 ff ff       	call   8048910 <exit@plt>
 80494be:	8b 84 24 7c 20 00 00 	mov    0x207c(%esp),%eax
 80494c5:	65 33 05 14 00 00 00 	xor    %gs:0x14,%eax
 80494cc:	74 05                	je     80494d3 <initialize_bomb+0x1d5>
 80494ce:	e8 ad f3 ff ff       	call   8048880 <__stack_chk_fail@plt>
 80494d3:	81 c4 84 20 00 00    	add    $0x2084,%esp
 80494d9:	5b                   	pop    %ebx
 80494da:	5e                   	pop    %esi
 80494db:	c3                   	ret    

080494dc <initialize_bomb_solve>:
 80494dc:	f3 c3                	repz ret 

080494de <blank_line>:
 80494de:	56                   	push   %esi
 80494df:	53                   	push   %ebx
 80494e0:	83 ec 04             	sub    $0x4,%esp
 80494e3:	8b 74 24 10          	mov    0x10(%esp),%esi
 80494e7:	eb 14                	jmp    80494fd <blank_line+0x1f>
 80494e9:	e8 22 f5 ff ff       	call   8048a10 <__ctype_b_loc@plt>
 80494ee:	83 c6 01             	add    $0x1,%esi
 80494f1:	0f be db             	movsbl %bl,%ebx
 80494f4:	8b 00                	mov    (%eax),%eax
 80494f6:	f6 44 58 01 20       	testb  $0x20,0x1(%eax,%ebx,2)
 80494fb:	74 0e                	je     804950b <blank_line+0x2d>
 80494fd:	0f b6 1e             	movzbl (%esi),%ebx
 8049500:	84 db                	test   %bl,%bl
 8049502:	75 e5                	jne    80494e9 <blank_line+0xb>
 8049504:	b8 01 00 00 00       	mov    $0x1,%eax
 8049509:	eb 05                	jmp    8049510 <blank_line+0x32>
 804950b:	b8 00 00 00 00       	mov    $0x0,%eax
 8049510:	83 c4 04             	add    $0x4,%esp
 8049513:	5b                   	pop    %ebx
 8049514:	5e                   	pop    %esi
 8049515:	c3                   	ret    

08049516 <skip>:
 8049516:	53                   	push   %ebx
 8049517:	83 ec 18             	sub    $0x18,%esp
 804951a:	a1 10 d8 04 08       	mov    0x804d810,%eax
 804951f:	89 44 24 08          	mov    %eax,0x8(%esp)
 8049523:	c7 44 24 04 50 00 00 	movl   $0x50,0x4(%esp)
 804952a:	00 
 804952b:	a1 0c d8 04 08       	mov    0x804d80c,%eax
 8049530:	8d 04 80             	lea    (%eax,%eax,4),%eax
 8049533:	c1 e0 04             	shl    $0x4,%eax
 8049536:	05 20 d8 04 08       	add    $0x804d820,%eax
 804953b:	89 04 24             	mov    %eax,(%esp)
 804953e:	e8 fd f2 ff ff       	call   8048840 <fgets@plt>
 8049543:	89 c3                	mov    %eax,%ebx
 8049545:	85 c0                	test   %eax,%eax
 8049547:	74 0c                	je     8049555 <skip+0x3f>
 8049549:	89 04 24             	mov    %eax,(%esp)
 804954c:	e8 8d ff ff ff       	call   80494de <blank_line>
 8049551:	85 c0                	test   %eax,%eax
 8049553:	75 c5                	jne    804951a <skip+0x4>
 8049555:	89 d8                	mov    %ebx,%eax
 8049557:	83 c4 18             	add    $0x18,%esp
 804955a:	5b                   	pop    %ebx
 804955b:	c3                   	ret    

0804955c <send_msg>:
 804955c:	57                   	push   %edi
 804955d:	53                   	push   %ebx
 804955e:	81 ec 34 40 00 00    	sub    $0x4034,%esp
 8049564:	65 a1 14 00 00 00    	mov    %gs:0x14,%eax
 804956a:	89 84 24 2c 40 00 00 	mov    %eax,0x402c(%esp)
 8049571:	31 c0                	xor    %eax,%eax
 8049573:	8b 15 0c d8 04 08    	mov    0x804d80c,%edx
 8049579:	8d 5c 92 fb          	lea    -0x5(%edx,%edx,4),%ebx
 804957d:	c1 e3 04             	shl    $0x4,%ebx
 8049580:	81 c3 20 d8 04 08    	add    $0x804d820,%ebx
 8049586:	89 df                	mov    %ebx,%edi
 8049588:	b9 ff ff ff ff       	mov    $0xffffffff,%ecx
 804958d:	f2 ae                	repnz scas %es:(%edi),%al
 804958f:	f7 d1                	not    %ecx
 8049591:	83 c1 63             	add    $0x63,%ecx
 8049594:	81 f9 00 20 00 00    	cmp    $0x2000,%ecx
 804959a:	76 20                	jbe    80495bc <send_msg+0x60>
 804959c:	c7 44 24 04 dc af 04 	movl   $0x804afdc,0x4(%esp)
 80495a3:	08 
 80495a4:	c7 04 24 01 00 00 00 	movl   $0x1,(%esp)
 80495ab:	e8 e0 f3 ff ff       	call   8048990 <__printf_chk@plt>
 80495b0:	c7 04 24 08 00 00 00 	movl   $0x8,(%esp)
 80495b7:	e8 54 f3 ff ff       	call   8048910 <exit@plt>
 80495bc:	83 bc 24 40 40 00 00 	cmpl   $0x0,0x4040(%esp)
 80495c3:	00 
 80495c4:	b8 6a aa 04 08       	mov    $0x804aa6a,%eax
 80495c9:	b9 72 aa 04 08       	mov    $0x804aa72,%ecx
 80495ce:	0f 44 c1             	cmove  %ecx,%eax
 80495d1:	89 5c 24 1c          	mov    %ebx,0x1c(%esp)
 80495d5:	89 54 24 18          	mov    %edx,0x18(%esp)
 80495d9:	89 44 24 14          	mov    %eax,0x14(%esp)
 80495dd:	a1 c0 d5 04 08       	mov    0x804d5c0,%eax
 80495e2:	89 44 24 10          	mov    %eax,0x10(%esp)
 80495e6:	c7 44 24 0c 7b aa 04 	movl   $0x804aa7b,0xc(%esp)
 80495ed:	08 
 80495ee:	c7 44 24 08 00 20 00 	movl   $0x2000,0x8(%esp)
 80495f5:	00 
 80495f6:	c7 44 24 04 01 00 00 	movl   $0x1,0x4(%esp)
 80495fd:	00 
 80495fe:	8d 5c 24 2c          	lea    0x2c(%esp),%ebx
 8049602:	89 1c 24             	mov    %ebx,(%esp)
 8049605:	e8 16 f4 ff ff       	call   8048a20 <__sprintf_chk@plt>
 804960a:	8d 84 24 2c 20 00 00 	lea    0x202c(%esp),%eax
 8049611:	89 44 24 0c          	mov    %eax,0xc(%esp)
 8049615:	c7 44 24 08 00 00 00 	movl   $0x0,0x8(%esp)
 804961c:	00 
 804961d:	89 5c 24 04          	mov    %ebx,0x4(%esp)
 8049621:	c7 04 24 c0 d1 04 08 	movl   $0x804d1c0,(%esp)
 8049628:	e8 3c 0e 00 00       	call   804a469 <driver_post>
 804962d:	85 c0                	test   %eax,%eax
 804962f:	79 1b                	jns    804964c <send_msg+0xf0>
 8049631:	8d 84 24 2c 20 00 00 	lea    0x202c(%esp),%eax
 8049638:	89 04 24             	mov    %eax,(%esp)
 804963b:	e8 90 f2 ff ff       	call   80488d0 <puts@plt>
 8049640:	c7 04 24 00 00 00 00 	movl   $0x0,(%esp)
 8049647:	e8 c4 f2 ff ff       	call   8048910 <exit@plt>
 804964c:	8b 84 24 2c 40 00 00 	mov    0x402c(%esp),%eax
 8049653:	65 33 05 14 00 00 00 	xor    %gs:0x14,%eax
 804965a:	74 05                	je     8049661 <send_msg+0x105>
 804965c:	e8 1f f2 ff ff       	call   8048880 <__stack_chk_fail@plt>
 8049661:	81 c4 34 40 00 00    	add    $0x4034,%esp
 8049667:	5b                   	pop    %ebx
 8049668:	5f                   	pop    %edi
 8049669:	c3                   	ret    

0804966a <explode_bomb>:
 804966a:	83 ec 1c             	sub    $0x1c,%esp
 804966d:	c7 04 24 00 b0 04 08 	movl   $0x804b000,(%esp)
 8049674:	e8 57 f2 ff ff       	call   80488d0 <puts@plt>
 8049679:	c7 04 24 00 00 00 00 	movl   $0x0,(%esp)
 8049680:	e8 d7 fe ff ff       	call   804955c <send_msg>
 8049685:	c7 04 24 30 b0 04 08 	movl   $0x804b030,(%esp)
 804968c:	e8 3f f2 ff ff       	call   80488d0 <puts@plt>
 8049691:	c7 04 24 08 00 00 00 	movl   $0x8,(%esp)
 8049698:	e8 73 f2 ff ff       	call   8048910 <exit@plt>

0804969d <read_line>:
 804969d:	83 ec 2c             	sub    $0x2c,%esp
 80496a0:	89 5c 24 20          	mov    %ebx,0x20(%esp)
 80496a4:	89 74 24 24          	mov    %esi,0x24(%esp)
 80496a8:	89 7c 24 28          	mov    %edi,0x28(%esp)
 80496ac:	e8 65 fe ff ff       	call   8049516 <skip>
 80496b1:	85 c0                	test   %eax,%eax
 80496b3:	75 6c                	jne    8049721 <read_line+0x84>
 80496b5:	a1 e4 d7 04 08       	mov    0x804d7e4,%eax
 80496ba:	39 05 10 d8 04 08    	cmp    %eax,0x804d810
 80496c0:	75 18                	jne    80496da <read_line+0x3d>
 80496c2:	c7 04 24 87 aa 04 08 	movl   $0x804aa87,(%esp)
 80496c9:	e8 02 f2 ff ff       	call   80488d0 <puts@plt>
 80496ce:	c7 04 24 08 00 00 00 	movl   $0x8,(%esp)
 80496d5:	e8 36 f2 ff ff       	call   8048910 <exit@plt>
 80496da:	c7 04 24 a5 aa 04 08 	movl   $0x804aaa5,(%esp)
 80496e1:	e8 da f1 ff ff       	call   80488c0 <getenv@plt>
 80496e6:	85 c0                	test   %eax,%eax
 80496e8:	74 0c                	je     80496f6 <read_line+0x59>
 80496ea:	c7 04 24 00 00 00 00 	movl   $0x0,(%esp)
 80496f1:	e8 1a f2 ff ff       	call   8048910 <exit@plt>
 80496f6:	a1 e4 d7 04 08       	mov    0x804d7e4,%eax
 80496fb:	a3 10 d8 04 08       	mov    %eax,0x804d810
 8049700:	e8 11 fe ff ff       	call   8049516 <skip>
 8049705:	85 c0                	test   %eax,%eax
 8049707:	75 18                	jne    8049721 <read_line+0x84>
 8049709:	c7 04 24 87 aa 04 08 	movl   $0x804aa87,(%esp)
 8049710:	e8 bb f1 ff ff       	call   80488d0 <puts@plt>
 8049715:	c7 04 24 00 00 00 00 	movl   $0x0,(%esp)
 804971c:	e8 ef f1 ff ff       	call   8048910 <exit@plt>
 8049721:	8b 15 0c d8 04 08    	mov    0x804d80c,%edx
 8049727:	8d 1c 92             	lea    (%edx,%edx,4),%ebx
 804972a:	c1 e3 04             	shl    $0x4,%ebx
 804972d:	81 c3 20 d8 04 08    	add    $0x804d820,%ebx
 8049733:	89 df                	mov    %ebx,%edi
 8049735:	b8 00 00 00 00       	mov    $0x0,%eax
 804973a:	b9 ff ff ff ff       	mov    $0xffffffff,%ecx
 804973f:	f2 ae                	repnz scas %es:(%edi),%al
 8049741:	f7 d1                	not    %ecx
 8049743:	83 e9 01             	sub    $0x1,%ecx
 8049746:	83 f9 4e             	cmp    $0x4e,%ecx
 8049749:	7e 37                	jle    8049782 <read_line+0xe5>
 804974b:	c7 04 24 b0 aa 04 08 	movl   $0x804aab0,(%esp)
 8049752:	e8 79 f1 ff ff       	call   80488d0 <puts@plt>
 8049757:	a1 0c d8 04 08       	mov    0x804d80c,%eax
 804975c:	8d 50 01             	lea    0x1(%eax),%edx
 804975f:	89 15 0c d8 04 08    	mov    %edx,0x804d80c
 8049765:	6b c0 50             	imul   $0x50,%eax,%eax
 8049768:	05 20 d8 04 08       	add    $0x804d820,%eax
 804976d:	ba cb aa 04 08       	mov    $0x804aacb,%edx
 8049772:	b9 04 00 00 00       	mov    $0x4,%ecx
 8049777:	89 c7                	mov    %eax,%edi
 8049779:	89 d6                	mov    %edx,%esi
 804977b:	f3 a5                	rep movsl %ds:(%esi),%es:(%edi)
 804977d:	e8 e8 fe ff ff       	call   804966a <explode_bomb>
 8049782:	8d 04 92             	lea    (%edx,%edx,4),%eax
 8049785:	c1 e0 04             	shl    $0x4,%eax
 8049788:	c6 84 01 1f d8 04 08 	movb   $0x0,0x804d81f(%ecx,%eax,1)
 804978f:	00 
 8049790:	83 c2 01             	add    $0x1,%edx
 8049793:	89 15 0c d8 04 08    	mov    %edx,0x804d80c
 8049799:	89 d8                	mov    %ebx,%eax
 804979b:	8b 5c 24 20          	mov    0x20(%esp),%ebx
 804979f:	8b 74 24 24          	mov    0x24(%esp),%esi
 80497a3:	8b 7c 24 28          	mov    0x28(%esp),%edi
 80497a7:	83 c4 2c             	add    $0x2c,%esp
 80497aa:	c3                   	ret    

080497ab <read_six_numbers>:
 80497ab:	83 ec 2c             	sub    $0x2c,%esp
 80497ae:	8b 44 24 34          	mov    0x34(%esp),%eax
 80497b2:	8d 50 14             	lea    0x14(%eax),%edx
 80497b5:	89 54 24 1c          	mov    %edx,0x1c(%esp)
 80497b9:	8d 50 10             	lea    0x10(%eax),%edx
 80497bc:	89 54 24 18          	mov    %edx,0x18(%esp)
 80497c0:	8d 50 0c             	lea    0xc(%eax),%edx
 80497c3:	89 54 24 14          	mov    %edx,0x14(%esp)
 80497c7:	8d 50 08             	lea    0x8(%eax),%edx
 80497ca:	89 54 24 10          	mov    %edx,0x10(%esp)
 80497ce:	8d 50 04             	lea    0x4(%eax),%edx
 80497d1:	89 54 24 0c          	mov    %edx,0xc(%esp)
 80497d5:	89 44 24 08          	mov    %eax,0x8(%esp)
 80497d9:	c7 44 24 04 db aa 04 	movl   $0x804aadb,0x4(%esp)
 80497e0:	08 
 80497e1:	8b 44 24 30          	mov    0x30(%esp),%eax
 80497e5:	89 04 24             	mov    %eax,(%esp)
 80497e8:	e8 63 f1 ff ff       	call   8048950 <__isoc99_sscanf@plt>
 80497ed:	83 f8 05             	cmp    $0x5,%eax
 80497f0:	7f 05                	jg     80497f7 <read_six_numbers+0x4c>
 80497f2:	e8 73 fe ff ff       	call   804966a <explode_bomb>
 80497f7:	83 c4 2c             	add    $0x2c,%esp
 80497fa:	c3                   	ret    

080497fb <phase_defused>:
 80497fb:	81 ec 8c 00 00 00    	sub    $0x8c,%esp
 8049801:	65 a1 14 00 00 00    	mov    %gs:0x14,%eax
 8049807:	89 44 24 7c          	mov    %eax,0x7c(%esp)
 804980b:	31 c0                	xor    %eax,%eax
 804980d:	c7 04 24 01 00 00 00 	movl   $0x1,(%esp)
 8049814:	e8 43 fd ff ff       	call   804955c <send_msg>
 8049819:	83 3d 0c d8 04 08 06 	cmpl   $0x6,0x804d80c
 8049820:	75 72                	jne    8049894 <phase_defused+0x99>
 8049822:	8d 44 24 2c          	lea    0x2c(%esp),%eax
 8049826:	89 44 24 10          	mov    %eax,0x10(%esp)
 804982a:	8d 44 24 28          	lea    0x28(%esp),%eax
 804982e:	89 44 24 0c          	mov    %eax,0xc(%esp)
 8049832:	8d 44 24 24          	lea    0x24(%esp),%eax
 8049836:	89 44 24 08          	mov    %eax,0x8(%esp)
 804983a:	c7 44 24 04 ed aa 04 	movl   $0x804aaed,0x4(%esp)
 8049841:	08 
 8049842:	c7 04 24 10 d9 04 08 	movl   $0x804d910,(%esp)
 8049849:	e8 02 f1 ff ff       	call   8048950 <__isoc99_sscanf@plt>
 804984e:	83 f8 03             	cmp    $0x3,%eax
 8049851:	75 29                	jne    804987c <phase_defused+0x81>
 8049853:	c7 44 24 04 f6 aa 04 	movl   $0x804aaf6,0x4(%esp)
 804985a:	08 
 804985b:	8d 44 24 2c          	lea    0x2c(%esp),%eax
 804985f:	89 04 24             	mov    %eax,(%esp)
 8049862:	e8 1f fa ff ff       	call   8049286 <strings_close>
 8049867:	85 c0                	test   %eax,%eax
 8049869:	75 11                	jne    804987c <phase_defused+0x81>
 804986b:	c7 04 24 78 b0 04 08 	movl   $0x804b078,(%esp)
 8049872:	e8 59 f0 ff ff       	call   80488d0 <puts@plt>
 8049877:	e8 fe f7 ff ff       	call   804907a <secret_phase>
 804987c:	c7 04 24 9c b0 04 08 	movl   $0x804b09c,(%esp)
 8049883:	e8 48 f0 ff ff       	call   80488d0 <puts@plt>
 8049888:	c7 04 24 cc b0 04 08 	movl   $0x804b0cc,(%esp)
 804988f:	e8 3c f0 ff ff       	call   80488d0 <puts@plt>
 8049894:	8b 44 24 7c          	mov    0x7c(%esp),%eax
 8049898:	65 33 05 14 00 00 00 	xor    %gs:0x14,%eax
 804989f:	74 05                	je     80498a6 <phase_defused+0xab>
 80498a1:	e8 da ef ff ff       	call   8048880 <__stack_chk_fail@plt>
 80498a6:	81 c4 8c 00 00 00    	add    $0x8c,%esp
 80498ac:	c3                   	ret    
 80498ad:	90                   	nop
 80498ae:	90                   	nop
 80498af:	90                   	nop

080498b0 <rio_readlineb>:
 80498b0:	55                   	push   %ebp
 80498b1:	57                   	push   %edi
 80498b2:	56                   	push   %esi
 80498b3:	53                   	push   %ebx
 80498b4:	83 ec 3c             	sub    $0x3c,%esp
 80498b7:	89 c3                	mov    %eax,%ebx
 80498b9:	83 f9 01             	cmp    $0x1,%ecx
 80498bc:	0f 86 bb 00 00 00    	jbe    804997d <rio_readlineb+0xcd>
 80498c2:	89 4c 24 1c          	mov    %ecx,0x1c(%esp)
 80498c6:	89 54 24 18          	mov    %edx,0x18(%esp)
 80498ca:	bd 01 00 00 00       	mov    $0x1,%ebp
 80498cf:	8d 78 0c             	lea    0xc(%eax),%edi
 80498d2:	eb 3c                	jmp    8049910 <rio_readlineb+0x60>
 80498d4:	c7 44 24 08 00 20 00 	movl   $0x2000,0x8(%esp)
 80498db:	00 
 80498dc:	89 7c 24 04          	mov    %edi,0x4(%esp)
 80498e0:	8b 03                	mov    (%ebx),%eax
 80498e2:	89 04 24             	mov    %eax,(%esp)
 80498e5:	e8 36 ef ff ff       	call   8048820 <read@plt>
 80498ea:	89 43 04             	mov    %eax,0x4(%ebx)
 80498ed:	85 c0                	test   %eax,%eax
 80498ef:	79 14                	jns    8049905 <rio_readlineb+0x55>
 80498f1:	e8 7a f0 ff ff       	call   8048970 <__errno_location@plt>
 80498f6:	83 38 04             	cmpl   $0x4,(%eax)
 80498f9:	74 15                	je     8049910 <rio_readlineb+0x60>
 80498fb:	90                   	nop
 80498fc:	8d 74 26 00          	lea    0x0(%esi,%eiz,1),%esi
 8049900:	e9 a0 00 00 00       	jmp    80499a5 <rio_readlineb+0xf5>
 8049905:	85 c0                	test   %eax,%eax
 8049907:	0f 84 9f 00 00 00    	je     80499ac <rio_readlineb+0xfc>
 804990d:	89 7b 08             	mov    %edi,0x8(%ebx)
 8049910:	8b 73 04             	mov    0x4(%ebx),%esi
 8049913:	85 f6                	test   %esi,%esi
 8049915:	7e bd                	jle    80498d4 <rio_readlineb+0x24>
 8049917:	85 f6                	test   %esi,%esi
 8049919:	0f 85 96 00 00 00    	jne    80499b5 <rio_readlineb+0x105>
 804991f:	c7 44 24 0c 01 00 00 	movl   $0x1,0xc(%esp)
 8049926:	00 
 8049927:	89 74 24 08          	mov    %esi,0x8(%esp)
 804992b:	8b 43 08             	mov    0x8(%ebx),%eax
 804992e:	89 44 24 04          	mov    %eax,0x4(%esp)
 8049932:	8d 44 24 2f          	lea    0x2f(%esp),%eax
 8049936:	89 04 24             	mov    %eax,(%esp)
 8049939:	e8 b2 ef ff ff       	call   80488f0 <__memcpy_chk@plt>
 804993e:	01 73 08             	add    %esi,0x8(%ebx)
 8049941:	29 73 04             	sub    %esi,0x4(%ebx)
 8049944:	83 fe 01             	cmp    $0x1,%esi
 8049947:	75 18                	jne    8049961 <rio_readlineb+0xb1>
 8049949:	0f b6 44 24 2f       	movzbl 0x2f(%esp),%eax
 804994e:	8b 54 24 18          	mov    0x18(%esp),%edx
 8049952:	88 02                	mov    %al,(%edx)
 8049954:	83 c2 01             	add    $0x1,%edx
 8049957:	89 54 24 18          	mov    %edx,0x18(%esp)
 804995b:	3c 0a                	cmp    $0xa,%al
 804995d:	75 13                	jne    8049972 <rio_readlineb+0xc2>
 804995f:	eb 25                	jmp    8049986 <rio_readlineb+0xd6>
 8049961:	89 e8                	mov    %ebp,%eax
 8049963:	85 f6                	test   %esi,%esi
 8049965:	75 28                	jne    804998f <rio_readlineb+0xdf>
 8049967:	83 f8 01             	cmp    $0x1,%eax
 804996a:	75 1a                	jne    8049986 <rio_readlineb+0xd6>
 804996c:	8d 74 26 00          	lea    0x0(%esi,%eiz,1),%esi
 8049970:	eb 24                	jmp    8049996 <rio_readlineb+0xe6>
 8049972:	83 c5 01             	add    $0x1,%ebp
 8049975:	3b 6c 24 1c          	cmp    0x1c(%esp),%ebp
 8049979:	75 95                	jne    8049910 <rio_readlineb+0x60>
 804997b:	eb 09                	jmp    8049986 <rio_readlineb+0xd6>
 804997d:	89 54 24 18          	mov    %edx,0x18(%esp)
 8049981:	bd 01 00 00 00       	mov    $0x1,%ebp
 8049986:	8b 44 24 18          	mov    0x18(%esp),%eax
 804998a:	c6 00 00             	movb   $0x0,(%eax)
 804998d:	eb 0c                	jmp    804999b <rio_readlineb+0xeb>
 804998f:	bd ff ff ff ff       	mov    $0xffffffff,%ebp
 8049994:	eb 05                	jmp    804999b <rio_readlineb+0xeb>
 8049996:	bd 00 00 00 00       	mov    $0x0,%ebp
 804999b:	89 e8                	mov    %ebp,%eax
 804999d:	83 c4 3c             	add    $0x3c,%esp
 80499a0:	5b                   	pop    %ebx
 80499a1:	5e                   	pop    %esi
 80499a2:	5f                   	pop    %edi
 80499a3:	5d                   	pop    %ebp
 80499a4:	c3                   	ret    
 80499a5:	be ff ff ff ff       	mov    $0xffffffff,%esi
 80499aa:	eb 05                	jmp    80499b1 <rio_readlineb+0x101>
 80499ac:	be 00 00 00 00       	mov    $0x0,%esi
 80499b1:	89 e8                	mov    %ebp,%eax
 80499b3:	eb ae                	jmp    8049963 <rio_readlineb+0xb3>
 80499b5:	8b 43 08             	mov    0x8(%ebx),%eax
 80499b8:	0f b6 00             	movzbl (%eax),%eax
 80499bb:	88 44 24 2f          	mov    %al,0x2f(%esp)
 80499bf:	83 43 08 01          	addl   $0x1,0x8(%ebx)
 80499c3:	83 6b 04 01          	subl   $0x1,0x4(%ebx)
 80499c7:	eb 80                	jmp    8049949 <rio_readlineb+0x99>

080499c9 <sigalrm_handler>:
 80499c9:	83 ec 1c             	sub    $0x1c,%esp
 80499cc:	c7 44 24 0c 00 00 00 	movl   $0x0,0xc(%esp)
 80499d3:	00 
 80499d4:	c7 44 24 08 00 b1 04 	movl   $0x804b100,0x8(%esp)
 80499db:	08 
 80499dc:	c7 44 24 04 01 00 00 	movl   $0x1,0x4(%esp)
 80499e3:	00 
 80499e4:	a1 e0 d7 04 08       	mov    0x804d7e0,%eax
 80499e9:	89 04 24             	mov    %eax,(%esp)
 80499ec:	e8 cf ef ff ff       	call   80489c0 <__fprintf_chk@plt>
 80499f1:	c7 04 24 01 00 00 00 	movl   $0x1,(%esp)
 80499f8:	e8 13 ef ff ff       	call   8048910 <exit@plt>

080499fd <submitr>:
 80499fd:	55                   	push   %ebp
 80499fe:	57                   	push   %edi
 80499ff:	56                   	push   %esi
 8049a00:	53                   	push   %ebx
 8049a01:	81 ec 7c a0 00 00    	sub    $0xa07c,%esp
 8049a07:	8b 9c 24 90 a0 00 00 	mov    0xa090(%esp),%ebx
 8049a0e:	8b 84 24 98 a0 00 00 	mov    0xa098(%esp),%eax
 8049a15:	89 44 24 30          	mov    %eax,0x30(%esp)
 8049a19:	8b 94 24 9c a0 00 00 	mov    0xa09c(%esp),%edx
 8049a20:	89 54 24 34          	mov    %edx,0x34(%esp)
 8049a24:	8b 8c 24 a0 a0 00 00 	mov    0xa0a0(%esp),%ecx
 8049a2b:	89 4c 24 38          	mov    %ecx,0x38(%esp)
 8049a2f:	8b ac 24 a4 a0 00 00 	mov    0xa0a4(%esp),%ebp
 8049a36:	8b 84 24 a8 a0 00 00 	mov    0xa0a8(%esp),%eax
 8049a3d:	89 44 24 28          	mov    %eax,0x28(%esp)
 8049a41:	65 8b 15 14 00 00 00 	mov    %gs:0x14,%edx
 8049a48:	89 94 24 6c a0 00 00 	mov    %edx,0xa06c(%esp)
 8049a4f:	31 d2                	xor    %edx,%edx
 8049a51:	c7 44 24 44 00 00 00 	movl   $0x0,0x44(%esp)
 8049a58:	00 
 8049a59:	c7 44 24 08 00 00 00 	movl   $0x0,0x8(%esp)
 8049a60:	00 
 8049a61:	c7 44 24 04 01 00 00 	movl   $0x1,0x4(%esp)
 8049a68:	00 
 8049a69:	c7 04 24 02 00 00 00 	movl   $0x2,(%esp)
 8049a70:	e8 2b ef ff ff       	call   80489a0 <socket@plt>
 8049a75:	89 44 24 2c          	mov    %eax,0x2c(%esp)
 8049a79:	85 c0                	test   %eax,%eax
 8049a7b:	79 52                	jns    8049acf <submitr+0xd2>
 8049a7d:	8b 4c 24 28          	mov    0x28(%esp),%ecx
 8049a81:	c7 01 45 72 72 6f    	movl   $0x6f727245,(%ecx)
 8049a87:	c7 41 04 72 3a 20 43 	movl   $0x43203a72,0x4(%ecx)
 8049a8e:	c7 41 08 6c 69 65 6e 	movl   $0x6e65696c,0x8(%ecx)
 8049a95:	c7 41 0c 74 20 75 6e 	movl   $0x6e752074,0xc(%ecx)
 8049a9c:	c7 41 10 61 62 6c 65 	movl   $0x656c6261,0x10(%ecx)
 8049aa3:	c7 41 14 20 74 6f 20 	movl   $0x206f7420,0x14(%ecx)
 8049aaa:	c7 41 18 63 72 65 61 	movl   $0x61657263,0x18(%ecx)
 8049ab1:	c7 41 1c 74 65 20 73 	movl   $0x73206574,0x1c(%ecx)
 8049ab8:	c7 41 20 6f 63 6b 65 	movl   $0x656b636f,0x20(%ecx)
 8049abf:	66 c7 41 24 74 00    	movw   $0x74,0x24(%ecx)
 8049ac5:	b8 ff ff ff ff       	mov    $0xffffffff,%eax
 8049aca:	e9 e8 06 00 00       	jmp    804a1b7 <submitr+0x7ba>
 8049acf:	89 1c 24             	mov    %ebx,(%esp)
 8049ad2:	e8 f9 ee ff ff       	call   80489d0 <gethostbyname@plt>
 8049ad7:	85 c0                	test   %eax,%eax
 8049ad9:	75 70                	jne    8049b4b <submitr+0x14e>
 8049adb:	8b 44 24 28          	mov    0x28(%esp),%eax
 8049adf:	c7 00 45 72 72 6f    	movl   $0x6f727245,(%eax)
 8049ae5:	c7 40 04 72 3a 20 44 	movl   $0x44203a72,0x4(%eax)
 8049aec:	c7 40 08 4e 53 20 69 	movl   $0x6920534e,0x8(%eax)
 8049af3:	c7 40 0c 73 20 75 6e 	movl   $0x6e752073,0xc(%eax)
 8049afa:	c7 40 10 61 62 6c 65 	movl   $0x656c6261,0x10(%eax)
 8049b01:	c7 40 14 20 74 6f 20 	movl   $0x206f7420,0x14(%eax)
 8049b08:	c7 40 18 72 65 73 6f 	movl   $0x6f736572,0x18(%eax)
 8049b0f:	c7 40 1c 6c 76 65 20 	movl   $0x2065766c,0x1c(%eax)
 8049b16:	c7 40 20 73 65 72 76 	movl   $0x76726573,0x20(%eax)
 8049b1d:	c7 40 24 65 72 20 61 	movl   $0x61207265,0x24(%eax)
 8049b24:	c7 40 28 64 64 72 65 	movl   $0x65726464,0x28(%eax)
 8049b2b:	66 c7 40 2c 73 73    	movw   $0x7373,0x2c(%eax)
 8049b31:	c6 40 2e 00          	movb   $0x0,0x2e(%eax)
 8049b35:	8b 44 24 2c          	mov    0x2c(%esp),%eax
 8049b39:	89 04 24             	mov    %eax,(%esp)
 8049b3c:	e8 bf ee ff ff       	call   8048a00 <close@plt>
 8049b41:	b8 ff ff ff ff       	mov    $0xffffffff,%eax
 8049b46:	e9 6c 06 00 00       	jmp    804a1b7 <submitr+0x7ba>
 8049b4b:	8d 9c 24 54 a0 00 00 	lea    0xa054(%esp),%ebx
 8049b52:	c7 84 24 54 a0 00 00 	movl   $0x0,0xa054(%esp)
 8049b59:	00 00 00 00 
 8049b5d:	c7 84 24 58 a0 00 00 	movl   $0x0,0xa058(%esp)
 8049b64:	00 00 00 00 
 8049b68:	c7 84 24 5c a0 00 00 	movl   $0x0,0xa05c(%esp)
 8049b6f:	00 00 00 00 
 8049b73:	c7 84 24 60 a0 00 00 	movl   $0x0,0xa060(%esp)
 8049b7a:	00 00 00 00 
 8049b7e:	66 c7 84 24 54 a0 00 	movw   $0x2,0xa054(%esp)
 8049b85:	00 02 00 
 8049b88:	c7 44 24 0c 0c 00 00 	movl   $0xc,0xc(%esp)
 8049b8f:	00 
 8049b90:	8b 50 0c             	mov    0xc(%eax),%edx
 8049b93:	89 54 24 08          	mov    %edx,0x8(%esp)
 8049b97:	8b 40 10             	mov    0x10(%eax),%eax
 8049b9a:	8b 00                	mov    (%eax),%eax
 8049b9c:	89 44 24 04          	mov    %eax,0x4(%esp)
 8049ba0:	8d 84 24 58 a0 00 00 	lea    0xa058(%esp),%eax
 8049ba7:	89 04 24             	mov    %eax,(%esp)
 8049baa:	e8 31 ed ff ff       	call   80488e0 <__memmove_chk@plt>
 8049baf:	0f b7 84 24 94 a0 00 	movzwl 0xa094(%esp),%eax
 8049bb6:	00 
 8049bb7:	66 c1 c8 08          	ror    $0x8,%ax
 8049bbb:	66 89 84 24 56 a0 00 	mov    %ax,0xa056(%esp)
 8049bc2:	00 
 8049bc3:	c7 44 24 08 10 00 00 	movl   $0x10,0x8(%esp)
 8049bca:	00 
 8049bcb:	89 5c 24 04          	mov    %ebx,0x4(%esp)
 8049bcf:	8b 44 24 2c          	mov    0x2c(%esp),%eax
 8049bd3:	89 04 24             	mov    %eax,(%esp)
 8049bd6:	e8 15 ee ff ff       	call   80489f0 <connect@plt>
 8049bdb:	85 c0                	test   %eax,%eax
 8049bdd:	79 62                	jns    8049c41 <submitr+0x244>
 8049bdf:	8b 54 24 28          	mov    0x28(%esp),%edx
 8049be3:	c7 02 45 72 72 6f    	movl   $0x6f727245,(%edx)
 8049be9:	c7 42 04 72 3a 20 55 	movl   $0x55203a72,0x4(%edx)
 8049bf0:	c7 42 08 6e 61 62 6c 	movl   $0x6c62616e,0x8(%edx)
 8049bf7:	c7 42 0c 65 20 74 6f 	movl   $0x6f742065,0xc(%edx)
 8049bfe:	c7 42 10 20 63 6f 6e 	movl   $0x6e6f6320,0x10(%edx)
 8049c05:	c7 42 14 6e 65 63 74 	movl   $0x7463656e,0x14(%edx)
 8049c0c:	c7 42 18 20 74 6f 20 	movl   $0x206f7420,0x18(%edx)
 8049c13:	c7 42 1c 74 68 65 20 	movl   $0x20656874,0x1c(%edx)
 8049c1a:	c7 42 20 73 65 72 76 	movl   $0x76726573,0x20(%edx)
 8049c21:	66 c7 42 24 65 72    	movw   $0x7265,0x24(%edx)
 8049c27:	c6 42 26 00          	movb   $0x0,0x26(%edx)
 8049c2b:	8b 44 24 2c          	mov    0x2c(%esp),%eax
 8049c2f:	89 04 24             	mov    %eax,(%esp)
 8049c32:	e8 c9 ed ff ff       	call   8048a00 <close@plt>
 8049c37:	b8 ff ff ff ff       	mov    $0xffffffff,%eax
 8049c3c:	e9 76 05 00 00       	jmp    804a1b7 <submitr+0x7ba>
 8049c41:	ba ff ff ff ff       	mov    $0xffffffff,%edx
 8049c46:	89 ef                	mov    %ebp,%edi
 8049c48:	b8 00 00 00 00       	mov    $0x0,%eax
 8049c4d:	89 d1                	mov    %edx,%ecx
 8049c4f:	f2 ae                	repnz scas %es:(%edi),%al
 8049c51:	89 cb                	mov    %ecx,%ebx
 8049c53:	f7 d3                	not    %ebx
 8049c55:	8b 7c 24 30          	mov    0x30(%esp),%edi
 8049c59:	89 d1                	mov    %edx,%ecx
 8049c5b:	f2 ae                	repnz scas %es:(%edi),%al
 8049c5d:	89 4c 24 3c          	mov    %ecx,0x3c(%esp)
 8049c61:	8b 7c 24 34          	mov    0x34(%esp),%edi
 8049c65:	89 d1                	mov    %edx,%ecx
 8049c67:	f2 ae                	repnz scas %es:(%edi),%al
 8049c69:	89 ce                	mov    %ecx,%esi
 8049c6b:	f7 d6                	not    %esi
 8049c6d:	8b 7c 24 38          	mov    0x38(%esp),%edi
 8049c71:	89 d1                	mov    %edx,%ecx
 8049c73:	f2 ae                	repnz scas %es:(%edi),%al
 8049c75:	2b 74 24 3c          	sub    0x3c(%esp),%esi
 8049c79:	29 ce                	sub    %ecx,%esi
 8049c7b:	8d 44 5b fd          	lea    -0x3(%ebx,%ebx,2),%eax
 8049c7f:	8d 44 06 7b          	lea    0x7b(%esi,%eax,1),%eax
 8049c83:	3d 00 20 00 00       	cmp    $0x2000,%eax
 8049c88:	76 7b                	jbe    8049d05 <submitr+0x308>
 8049c8a:	8b 44 24 28          	mov    0x28(%esp),%eax
 8049c8e:	c7 00 45 72 72 6f    	movl   $0x6f727245,(%eax)
 8049c94:	c7 40 04 72 3a 20 52 	movl   $0x52203a72,0x4(%eax)
 8049c9b:	c7 40 08 65 73 75 6c 	movl   $0x6c757365,0x8(%eax)
 8049ca2:	c7 40 0c 74 20 73 74 	movl   $0x74732074,0xc(%eax)
 8049ca9:	c7 40 10 72 69 6e 67 	movl   $0x676e6972,0x10(%eax)
 8049cb0:	c7 40 14 20 74 6f 6f 	movl   $0x6f6f7420,0x14(%eax)
 8049cb7:	c7 40 18 20 6c 61 72 	movl   $0x72616c20,0x18(%eax)
 8049cbe:	c7 40 1c 67 65 2e 20 	movl   $0x202e6567,0x1c(%eax)
 8049cc5:	c7 40 20 49 6e 63 72 	movl   $0x72636e49,0x20(%eax)
 8049ccc:	c7 40 24 65 61 73 65 	movl   $0x65736165,0x24(%eax)
 8049cd3:	c7 40 28 20 53 55 42 	movl   $0x42555320,0x28(%eax)
 8049cda:	c7 40 2c 4d 49 54 52 	movl   $0x5254494d,0x2c(%eax)
 8049ce1:	c7 40 30 5f 4d 41 58 	movl   $0x58414d5f,0x30(%eax)
 8049ce8:	c7 40 34 42 55 46 00 	movl   $0x465542,0x34(%eax)
 8049cef:	8b 44 24 2c          	mov    0x2c(%esp),%eax
 8049cf3:	89 04 24             	mov    %eax,(%esp)
 8049cf6:	e8 05 ed ff ff       	call   8048a00 <close@plt>
 8049cfb:	b8 ff ff ff ff       	mov    $0xffffffff,%eax
 8049d00:	e9 b2 04 00 00       	jmp    804a1b7 <submitr+0x7ba>
 8049d05:	8d 94 24 54 40 00 00 	lea    0x4054(%esp),%edx
 8049d0c:	b9 00 08 00 00       	mov    $0x800,%ecx
 8049d11:	b8 00 00 00 00       	mov    $0x0,%eax
 8049d16:	89 d7                	mov    %edx,%edi
 8049d18:	f3 ab                	rep stos %eax,%es:(%edi)
 8049d1a:	89 ef                	mov    %ebp,%edi
 8049d1c:	b9 ff ff ff ff       	mov    $0xffffffff,%ecx
 8049d21:	f2 ae                	repnz scas %es:(%edi),%al
 8049d23:	f7 d1                	not    %ecx
 8049d25:	89 ce                	mov    %ecx,%esi
 8049d27:	83 ee 01             	sub    $0x1,%esi
 8049d2a:	0f 84 99 04 00 00    	je     804a1c9 <submitr+0x7cc>
 8049d30:	89 d3                	mov    %edx,%ebx
 8049d32:	0f b6 45 00          	movzbl 0x0(%ebp),%eax
 8049d36:	3c 2a                	cmp    $0x2a,%al
 8049d38:	74 24                	je     8049d5e <submitr+0x361>
 8049d3a:	3c 2d                	cmp    $0x2d,%al
 8049d3c:	74 20                	je     8049d5e <submitr+0x361>
 8049d3e:	3c 2e                	cmp    $0x2e,%al
 8049d40:	74 1c                	je     8049d5e <submitr+0x361>
 8049d42:	3c 5f                	cmp    $0x5f,%al
 8049d44:	74 18                	je     8049d5e <submitr+0x361>
 8049d46:	8d 50 d0             	lea    -0x30(%eax),%edx
 8049d49:	80 fa 09             	cmp    $0x9,%dl
 8049d4c:	76 10                	jbe    8049d5e <submitr+0x361>
 8049d4e:	8d 50 bf             	lea    -0x41(%eax),%edx
 8049d51:	80 fa 19             	cmp    $0x19,%dl
 8049d54:	76 08                	jbe    8049d5e <submitr+0x361>
 8049d56:	8d 50 9f             	lea    -0x61(%eax),%edx
 8049d59:	80 fa 19             	cmp    $0x19,%dl
 8049d5c:	77 07                	ja     8049d65 <submitr+0x368>
 8049d5e:	88 03                	mov    %al,(%ebx)
 8049d60:	83 c3 01             	add    $0x1,%ebx
 8049d63:	eb 69                	jmp    8049dce <submitr+0x3d1>
 8049d65:	3c 20                	cmp    $0x20,%al
 8049d67:	75 08                	jne    8049d71 <submitr+0x374>
 8049d69:	c6 03 2b             	movb   $0x2b,(%ebx)
 8049d6c:	83 c3 01             	add    $0x1,%ebx
 8049d6f:	eb 5d                	jmp    8049dce <submitr+0x3d1>
 8049d71:	8d 50 e0             	lea    -0x20(%eax),%edx
 8049d74:	80 fa 5f             	cmp    $0x5f,%dl
 8049d77:	76 04                	jbe    8049d7d <submitr+0x380>
 8049d79:	3c 09                	cmp    $0x9,%al
 8049d7b:	75 62                	jne    8049ddf <submitr+0x3e2>
 8049d7d:	0f b6 c0             	movzbl %al,%eax
 8049d80:	89 44 24 10          	mov    %eax,0x10(%esp)
 8049d84:	c7 44 24 0c 34 b2 04 	movl   $0x804b234,0xc(%esp)
 8049d8b:	08 
 8049d8c:	c7 44 24 08 08 00 00 	movl   $0x8,0x8(%esp)
 8049d93:	00 
 8049d94:	c7 44 24 04 01 00 00 	movl   $0x1,0x4(%esp)
 8049d9b:	00 
 8049d9c:	8d 94 24 64 a0 00 00 	lea    0xa064(%esp),%edx
 8049da3:	89 14 24             	mov    %edx,(%esp)
 8049da6:	e8 75 ec ff ff       	call   8048a20 <__sprintf_chk@plt>
 8049dab:	0f b6 84 24 64 a0 00 	movzbl 0xa064(%esp),%eax
 8049db2:	00 
 8049db3:	88 03                	mov    %al,(%ebx)
 8049db5:	0f b6 84 24 65 a0 00 	movzbl 0xa065(%esp),%eax
 8049dbc:	00 
 8049dbd:	88 43 01             	mov    %al,0x1(%ebx)
 8049dc0:	0f b6 84 24 66 a0 00 	movzbl 0xa066(%esp),%eax
 8049dc7:	00 
 8049dc8:	88 43 02             	mov    %al,0x2(%ebx)
 8049dcb:	83 c3 03             	add    $0x3,%ebx
 8049dce:	83 c5 01             	add    $0x1,%ebp
 8049dd1:	83 ee 01             	sub    $0x1,%esi
 8049dd4:	0f 85 58 ff ff ff    	jne    8049d32 <submitr+0x335>
 8049dda:	e9 ea 03 00 00       	jmp    804a1c9 <submitr+0x7cc>
 8049ddf:	8b 7c 24 28          	mov    0x28(%esp),%edi
 8049de3:	be 24 b1 04 08       	mov    $0x804b124,%esi
 8049de8:	b8 43 00 00 00       	mov    $0x43,%eax
 8049ded:	f7 c7 01 00 00 00    	test   $0x1,%edi
 8049df3:	74 1a                	je     8049e0f <submitr+0x412>
 8049df5:	0f b6 05 24 b1 04 08 	movzbl 0x804b124,%eax
 8049dfc:	88 07                	mov    %al,(%edi)
 8049dfe:	8b 7c 24 28          	mov    0x28(%esp),%edi
 8049e02:	83 c7 01             	add    $0x1,%edi
 8049e05:	be 25 b1 04 08       	mov    $0x804b125,%esi
 8049e0a:	b8 42 00 00 00       	mov    $0x42,%eax
 8049e0f:	f7 c7 02 00 00 00    	test   $0x2,%edi
 8049e15:	74 0f                	je     8049e26 <submitr+0x429>
 8049e17:	0f b7 16             	movzwl (%esi),%edx
 8049e1a:	66 89 17             	mov    %dx,(%edi)
 8049e1d:	83 c7 02             	add    $0x2,%edi
 8049e20:	83 c6 02             	add    $0x2,%esi
 8049e23:	83 e8 02             	sub    $0x2,%eax
 8049e26:	89 c1                	mov    %eax,%ecx
 8049e28:	c1 e9 02             	shr    $0x2,%ecx
 8049e2b:	f3 a5                	rep movsl %ds:(%esi),%es:(%edi)
 8049e2d:	ba 00 00 00 00       	mov    $0x0,%edx
 8049e32:	a8 02                	test   $0x2,%al
 8049e34:	74 0b                	je     8049e41 <submitr+0x444>
 8049e36:	0f b7 16             	movzwl (%esi),%edx
 8049e39:	66 89 17             	mov    %dx,(%edi)
 8049e3c:	ba 02 00 00 00       	mov    $0x2,%edx
 8049e41:	a8 01                	test   $0x1,%al
 8049e43:	74 07                	je     8049e4c <submitr+0x44f>
 8049e45:	0f b6 04 16          	movzbl (%esi,%edx,1),%eax
 8049e49:	88 04 17             	mov    %al,(%edi,%edx,1)
 8049e4c:	8b 44 24 2c          	mov    0x2c(%esp),%eax
 8049e50:	89 04 24             	mov    %eax,(%esp)
 8049e53:	e8 a8 eb ff ff       	call   8048a00 <close@plt>
 8049e58:	b8 ff ff ff ff       	mov    $0xffffffff,%eax
 8049e5d:	e9 55 03 00 00       	jmp    804a1b7 <submitr+0x7ba>
 8049e62:	89 fd                	mov    %edi,%ebp
 8049e64:	8b 7c 24 2c          	mov    0x2c(%esp),%edi
 8049e68:	89 5c 24 08          	mov    %ebx,0x8(%esp)
 8049e6c:	89 74 24 04          	mov    %esi,0x4(%esp)
 8049e70:	89 3c 24             	mov    %edi,(%esp)
 8049e73:	e8 b8 ea ff ff       	call   8048930 <write@plt>
 8049e78:	85 c0                	test   %eax,%eax
 8049e7a:	7f 0f                	jg     8049e8b <submitr+0x48e>
 8049e7c:	e8 ef ea ff ff       	call   8048970 <__errno_location@plt>
 8049e81:	83 38 04             	cmpl   $0x4,(%eax)
 8049e84:	75 0f                	jne    8049e95 <submitr+0x498>
 8049e86:	b8 00 00 00 00       	mov    $0x0,%eax
 8049e8b:	01 c6                	add    %eax,%esi
 8049e8d:	29 c3                	sub    %eax,%ebx
 8049e8f:	75 d7                	jne    8049e68 <submitr+0x46b>
 8049e91:	85 ed                	test   %ebp,%ebp
 8049e93:	79 66                	jns    8049efb <submitr+0x4fe>
 8049e95:	8b 54 24 28          	mov    0x28(%esp),%edx
 8049e99:	c7 02 45 72 72 6f    	movl   $0x6f727245,(%edx)
 8049e9f:	c7 42 04 72 3a 20 43 	movl   $0x43203a72,0x4(%edx)
 8049ea6:	c7 42 08 6c 69 65 6e 	movl   $0x6e65696c,0x8(%edx)
 8049ead:	c7 42 0c 74 20 75 6e 	movl   $0x6e752074,0xc(%edx)
 8049eb4:	c7 42 10 61 62 6c 65 	movl   $0x656c6261,0x10(%edx)
 8049ebb:	c7 42 14 20 74 6f 20 	movl   $0x206f7420,0x14(%edx)
 8049ec2:	c7 42 18 77 72 69 74 	movl   $0x74697277,0x18(%edx)
 8049ec9:	c7 42 1c 65 20 74 6f 	movl   $0x6f742065,0x1c(%edx)
 8049ed0:	c7 42 20 20 74 68 65 	movl   $0x65687420,0x20(%edx)
 8049ed7:	c7 42 24 20 73 65 72 	movl   $0x72657320,0x24(%edx)
 8049ede:	c7 42 28 76 65 72 00 	movl   $0x726576,0x28(%edx)
 8049ee5:	8b 44 24 2c          	mov    0x2c(%esp),%eax
 8049ee9:	89 04 24             	mov    %eax,(%esp)
 8049eec:	e8 0f eb ff ff       	call   8048a00 <close@plt>
 8049ef1:	b8 ff ff ff ff       	mov    $0xffffffff,%eax
 8049ef6:	e9 bc 02 00 00       	jmp    804a1b7 <submitr+0x7ba>
 8049efb:	8b 44 24 2c          	mov    0x2c(%esp),%eax
 8049eff:	89 44 24 48          	mov    %eax,0x48(%esp)
 8049f03:	c7 44 24 4c 00 00 00 	movl   $0x0,0x4c(%esp)
 8049f0a:	00 
 8049f0b:	8d 44 24 54          	lea    0x54(%esp),%eax
 8049f0f:	89 44 24 50          	mov    %eax,0x50(%esp)
 8049f13:	b9 00 20 00 00       	mov    $0x2000,%ecx
 8049f18:	8d 94 24 54 20 00 00 	lea    0x2054(%esp),%edx
 8049f1f:	8d 44 24 48          	lea    0x48(%esp),%eax
 8049f23:	e8 88 f9 ff ff       	call   80498b0 <rio_readlineb>
 8049f28:	85 c0                	test   %eax,%eax
 8049f2a:	7f 7a                	jg     8049fa6 <submitr+0x5a9>
 8049f2c:	8b 54 24 28          	mov    0x28(%esp),%edx
 8049f30:	c7 02 45 72 72 6f    	movl   $0x6f727245,(%edx)
 8049f36:	c7 42 04 72 3a 20 43 	movl   $0x43203a72,0x4(%edx)
 8049f3d:	c7 42 08 6c 69 65 6e 	movl   $0x6e65696c,0x8(%edx)
 8049f44:	c7 42 0c 74 20 75 6e 	movl   $0x6e752074,0xc(%edx)
 8049f4b:	c7 42 10 61 62 6c 65 	movl   $0x656c6261,0x10(%edx)
 8049f52:	c7 42 14 20 74 6f 20 	movl   $0x206f7420,0x14(%edx)
 8049f59:	c7 42 18 72 65 61 64 	movl   $0x64616572,0x18(%edx)
 8049f60:	c7 42 1c 20 66 69 72 	movl   $0x72696620,0x1c(%edx)
 8049f67:	c7 42 20 73 74 20 68 	movl   $0x68207473,0x20(%edx)
 8049f6e:	c7 42 24 65 61 64 65 	movl   $0x65646165,0x24(%edx)
 8049f75:	c7 42 28 72 20 66 72 	movl   $0x72662072,0x28(%edx)
 8049f7c:	c7 42 2c 6f 6d 20 73 	movl   $0x73206d6f,0x2c(%edx)
 8049f83:	c7 42 30 65 72 76 65 	movl   $0x65767265,0x30(%edx)
 8049f8a:	66 c7 42 34 72 00    	movw   $0x72,0x34(%edx)
 8049f90:	8b 44 24 2c          	mov    0x2c(%esp),%eax
 8049f94:	89 04 24             	mov    %eax,(%esp)
 8049f97:	e8 64 ea ff ff       	call   8048a00 <close@plt>
 8049f9c:	b8 ff ff ff ff       	mov    $0xffffffff,%eax
 8049fa1:	e9 11 02 00 00       	jmp    804a1b7 <submitr+0x7ba>
 8049fa6:	8d 84 24 54 80 00 00 	lea    0x8054(%esp),%eax
 8049fad:	89 44 24 10          	mov    %eax,0x10(%esp)
 8049fb1:	8d 44 24 44          	lea    0x44(%esp),%eax
 8049fb5:	89 44 24 0c          	mov    %eax,0xc(%esp)
 8049fb9:	8d 84 24 54 60 00 00 	lea    0x6054(%esp),%eax
 8049fc0:	89 44 24 08          	mov    %eax,0x8(%esp)
 8049fc4:	c7 44 24 04 3b b2 04 	movl   $0x804b23b,0x4(%esp)
 8049fcb:	08 
 8049fcc:	8d 84 24 54 20 00 00 	lea    0x2054(%esp),%eax
 8049fd3:	89 04 24             	mov    %eax,(%esp)
 8049fd6:	e8 75 e9 ff ff       	call   8048950 <__isoc99_sscanf@plt>
 8049fdb:	8b 44 24 44          	mov    0x44(%esp),%eax
 8049fdf:	3d c8 00 00 00       	cmp    $0xc8,%eax
 8049fe4:	0f 84 d3 00 00 00    	je     804a0bd <submitr+0x6c0>
 8049fea:	8d 94 24 54 80 00 00 	lea    0x8054(%esp),%edx
 8049ff1:	89 54 24 14          	mov    %edx,0x14(%esp)
 8049ff5:	89 44 24 10          	mov    %eax,0x10(%esp)
 8049ff9:	c7 44 24 0c 68 b1 04 	movl   $0x804b168,0xc(%esp)
 804a000:	08 
 804a001:	c7 44 24 08 ff ff ff 	movl   $0xffffffff,0x8(%esp)
 804a008:	ff 
 804a009:	c7 44 24 04 01 00 00 	movl   $0x1,0x4(%esp)
 804a010:	00 
 804a011:	8b 54 24 28          	mov    0x28(%esp),%edx
 804a015:	89 14 24             	mov    %edx,(%esp)
 804a018:	e8 03 ea ff ff       	call   8048a20 <__sprintf_chk@plt>
 804a01d:	8b 44 24 2c          	mov    0x2c(%esp),%eax
 804a021:	89 04 24             	mov    %eax,(%esp)
 804a024:	e8 d7 e9 ff ff       	call   8048a00 <close@plt>
 804a029:	b8 ff ff ff ff       	mov    $0xffffffff,%eax
 804a02e:	e9 84 01 00 00       	jmp    804a1b7 <submitr+0x7ba>
 804a033:	b9 00 20 00 00       	mov    $0x2000,%ecx
 804a038:	8d 94 24 54 20 00 00 	lea    0x2054(%esp),%edx
 804a03f:	8d 44 24 48          	lea    0x48(%esp),%eax
 804a043:	e8 68 f8 ff ff       	call   80498b0 <rio_readlineb>
 804a048:	85 c0                	test   %eax,%eax
 804a04a:	7f 71                	jg     804a0bd <submitr+0x6c0>
 804a04c:	8b 54 24 28          	mov    0x28(%esp),%edx
 804a050:	c7 02 45 72 72 6f    	movl   $0x6f727245,(%edx)
 804a056:	c7 42 04 72 3a 20 43 	movl   $0x43203a72,0x4(%edx)
 804a05d:	c7 42 08 6c 69 65 6e 	movl   $0x6e65696c,0x8(%edx)
 804a064:	c7 42 0c 74 20 75 6e 	movl   $0x6e752074,0xc(%edx)
 804a06b:	c7 42 10 61 62 6c 65 	movl   $0x656c6261,0x10(%edx)
 804a072:	c7 42 14 20 74 6f 20 	movl   $0x206f7420,0x14(%edx)
 804a079:	c7 42 18 72 65 61 64 	movl   $0x64616572,0x18(%edx)
 804a080:	c7 42 1c 20 68 65 61 	movl   $0x61656820,0x1c(%edx)
 804a087:	c7 42 20 64 65 72 73 	movl   $0x73726564,0x20(%edx)
 804a08e:	c7 42 24 20 66 72 6f 	movl   $0x6f726620,0x24(%edx)
 804a095:	c7 42 28 6d 20 73 65 	movl   $0x6573206d,0x28(%edx)
 804a09c:	c7 42 2c 72 76 65 72 	movl   $0x72657672,0x2c(%edx)
 804a0a3:	c6 42 30 00          	movb   $0x0,0x30(%edx)
 804a0a7:	8b 44 24 2c          	mov    0x2c(%esp),%eax
 804a0ab:	89 04 24             	mov    %eax,(%esp)
 804a0ae:	e8 4d e9 ff ff       	call   8048a00 <close@plt>
 804a0b3:	b8 ff ff ff ff       	mov    $0xffffffff,%eax
 804a0b8:	e9 fa 00 00 00       	jmp    804a1b7 <submitr+0x7ba>
 804a0bd:	80 bc 24 54 20 00 00 	cmpb   $0xd,0x2054(%esp)
 804a0c4:	0d 
 804a0c5:	0f 85 68 ff ff ff    	jne    804a033 <submitr+0x636>
 804a0cb:	80 bc 24 55 20 00 00 	cmpb   $0xa,0x2055(%esp)
 804a0d2:	0a 
 804a0d3:	0f 85 5a ff ff ff    	jne    804a033 <submitr+0x636>
 804a0d9:	80 bc 24 56 20 00 00 	cmpb   $0x0,0x2056(%esp)
 804a0e0:	00 
 804a0e1:	0f 85 4c ff ff ff    	jne    804a033 <submitr+0x636>
 804a0e7:	b9 00 20 00 00       	mov    $0x2000,%ecx
 804a0ec:	8d 94 24 54 20 00 00 	lea    0x2054(%esp),%edx
 804a0f3:	8d 44 24 48          	lea    0x48(%esp),%eax
 804a0f7:	e8 b4 f7 ff ff       	call   80498b0 <rio_readlineb>
 804a0fc:	85 c0                	test   %eax,%eax
 804a0fe:	7f 78                	jg     804a178 <submitr+0x77b>
 804a100:	8b 54 24 28          	mov    0x28(%esp),%edx
 804a104:	c7 02 45 72 72 6f    	movl   $0x6f727245,(%edx)
 804a10a:	c7 42 04 72 3a 20 43 	movl   $0x43203a72,0x4(%edx)
 804a111:	c7 42 08 6c 69 65 6e 	movl   $0x6e65696c,0x8(%edx)
 804a118:	c7 42 0c 74 20 75 6e 	movl   $0x6e752074,0xc(%edx)
 804a11f:	c7 42 10 61 62 6c 65 	movl   $0x656c6261,0x10(%edx)
 804a126:	c7 42 14 20 74 6f 20 	movl   $0x206f7420,0x14(%edx)
 804a12d:	c7 42 18 72 65 61 64 	movl   $0x64616572,0x18(%edx)
 804a134:	c7 42 1c 20 73 74 61 	movl   $0x61747320,0x1c(%edx)
 804a13b:	c7 42 20 74 75 73 20 	movl   $0x20737574,0x20(%edx)
 804a142:	c7 42 24 6d 65 73 73 	movl   $0x7373656d,0x24(%edx)
 804a149:	c7 42 28 61 67 65 20 	movl   $0x20656761,0x28(%edx)
 804a150:	c7 42 2c 66 72 6f 6d 	movl   $0x6d6f7266,0x2c(%edx)
 804a157:	c7 42 30 20 73 65 72 	movl   $0x72657320,0x30(%edx)
 804a15e:	c7 42 34 76 65 72 00 	movl   $0x726576,0x34(%edx)
 804a165:	8b 44 24 2c          	mov    0x2c(%esp),%eax
 804a169:	89 04 24             	mov    %eax,(%esp)
 804a16c:	e8 8f e8 ff ff       	call   8048a00 <close@plt>
 804a171:	b8 ff ff ff ff       	mov    $0xffffffff,%eax
 804a176:	eb 3f                	jmp    804a1b7 <submitr+0x7ba>
 804a178:	8d 84 24 54 20 00 00 	lea    0x2054(%esp),%eax
 804a17f:	89 44 24 04          	mov    %eax,0x4(%esp)
 804a183:	8b 54 24 28          	mov    0x28(%esp),%edx
 804a187:	89 14 24             	mov    %edx,(%esp)
 804a18a:	e8 11 e7 ff ff       	call   80488a0 <strcpy@plt>
 804a18f:	8b 44 24 2c          	mov    0x2c(%esp),%eax
 804a193:	89 04 24             	mov    %eax,(%esp)
 804a196:	e8 65 e8 ff ff       	call   8048a00 <close@plt>
 804a19b:	b8 ff ff ff ff       	mov    $0xffffffff,%eax
 804a1a0:	8b 54 24 28          	mov    0x28(%esp),%edx
 804a1a4:	80 3a 4f             	cmpb   $0x4f,(%edx)
 804a1a7:	75 0e                	jne    804a1b7 <submitr+0x7ba>
 804a1a9:	80 7a 01 4b          	cmpb   $0x4b,0x1(%edx)
 804a1ad:	75 08                	jne    804a1b7 <submitr+0x7ba>
 804a1af:	80 7a 02 01          	cmpb   $0x1,0x2(%edx)
 804a1b3:	19 c0                	sbb    %eax,%eax
 804a1b5:	f7 d0                	not    %eax
 804a1b7:	8b 8c 24 6c a0 00 00 	mov    0xa06c(%esp),%ecx
 804a1be:	65 33 0d 14 00 00 00 	xor    %gs:0x14,%ecx
 804a1c5:	74 78                	je     804a23f <submitr+0x842>
 804a1c7:	eb 71                	jmp    804a23a <submitr+0x83d>
 804a1c9:	8d 84 24 54 40 00 00 	lea    0x4054(%esp),%eax
 804a1d0:	89 44 24 1c          	mov    %eax,0x1c(%esp)
 804a1d4:	8b 44 24 38          	mov    0x38(%esp),%eax
 804a1d8:	89 44 24 18          	mov    %eax,0x18(%esp)
 804a1dc:	8b 54 24 34          	mov    0x34(%esp),%edx
 804a1e0:	89 54 24 14          	mov    %edx,0x14(%esp)
 804a1e4:	8b 4c 24 30          	mov    0x30(%esp),%ecx
 804a1e8:	89 4c 24 10          	mov    %ecx,0x10(%esp)
 804a1ec:	c7 44 24 0c 98 b1 04 	movl   $0x804b198,0xc(%esp)
 804a1f3:	08 
 804a1f4:	c7 44 24 08 00 20 00 	movl   $0x2000,0x8(%esp)
 804a1fb:	00 
 804a1fc:	c7 44 24 04 01 00 00 	movl   $0x1,0x4(%esp)
 804a203:	00 
 804a204:	8d bc 24 54 20 00 00 	lea    0x2054(%esp),%edi
 804a20b:	89 3c 24             	mov    %edi,(%esp)
 804a20e:	e8 0d e8 ff ff       	call   8048a20 <__sprintf_chk@plt>
 804a213:	b8 00 00 00 00       	mov    $0x0,%eax
 804a218:	b9 ff ff ff ff       	mov    $0xffffffff,%ecx
 804a21d:	f2 ae                	repnz scas %es:(%edi),%al
 804a21f:	f7 d1                	not    %ecx
 804a221:	8d 79 ff             	lea    -0x1(%ecx),%edi
 804a224:	89 fb                	mov    %edi,%ebx
 804a226:	8d b4 24 54 20 00 00 	lea    0x2054(%esp),%esi
 804a22d:	85 ff                	test   %edi,%edi
 804a22f:	0f 85 2d fc ff ff    	jne    8049e62 <submitr+0x465>
 804a235:	e9 c1 fc ff ff       	jmp    8049efb <submitr+0x4fe>
 804a23a:	e8 41 e6 ff ff       	call   8048880 <__stack_chk_fail@plt>
 804a23f:	81 c4 7c a0 00 00    	add    $0xa07c,%esp
 804a245:	5b                   	pop    %ebx
 804a246:	5e                   	pop    %esi
 804a247:	5f                   	pop    %edi
 804a248:	5d                   	pop    %ebp
 804a249:	c3                   	ret    

0804a24a <init_timeout>:
 804a24a:	53                   	push   %ebx
 804a24b:	83 ec 18             	sub    $0x18,%esp
 804a24e:	8b 5c 24 20          	mov    0x20(%esp),%ebx
 804a252:	85 db                	test   %ebx,%ebx
 804a254:	74 26                	je     804a27c <init_timeout+0x32>
 804a256:	c7 44 24 04 c9 99 04 	movl   $0x80499c9,0x4(%esp)
 804a25d:	08 
 804a25e:	c7 04 24 0e 00 00 00 	movl   $0xe,(%esp)
 804a265:	e8 e6 e5 ff ff       	call   8048850 <signal@plt>
 804a26a:	85 db                	test   %ebx,%ebx
 804a26c:	b8 00 00 00 00       	mov    $0x0,%eax
 804a271:	0f 48 d8             	cmovs  %eax,%ebx
 804a274:	89 1c 24             	mov    %ebx,(%esp)
 804a277:	e8 f4 e5 ff ff       	call   8048870 <alarm@plt>
 804a27c:	83 c4 18             	add    $0x18,%esp
 804a27f:	5b                   	pop    %ebx
 804a280:	c3                   	ret    

0804a281 <init_driver>:
 804a281:	57                   	push   %edi
 804a282:	56                   	push   %esi
 804a283:	53                   	push   %ebx
 804a284:	83 ec 40             	sub    $0x40,%esp
 804a287:	8b 74 24 50          	mov    0x50(%esp),%esi
 804a28b:	65 a1 14 00 00 00    	mov    %gs:0x14,%eax
 804a291:	89 44 24 3c          	mov    %eax,0x3c(%esp)
 804a295:	31 c0                	xor    %eax,%eax
 804a297:	c7 44 24 04 01 00 00 	movl   $0x1,0x4(%esp)
 804a29e:	00 
 804a29f:	c7 04 24 0d 00 00 00 	movl   $0xd,(%esp)
 804a2a6:	e8 a5 e5 ff ff       	call   8048850 <signal@plt>
 804a2ab:	c7 44 24 04 01 00 00 	movl   $0x1,0x4(%esp)
 804a2b2:	00 
 804a2b3:	c7 04 24 1d 00 00 00 	movl   $0x1d,(%esp)
 804a2ba:	e8 91 e5 ff ff       	call   8048850 <signal@plt>
 804a2bf:	c7 44 24 04 01 00 00 	movl   $0x1,0x4(%esp)
 804a2c6:	00 
 804a2c7:	c7 04 24 1d 00 00 00 	movl   $0x1d,(%esp)
 804a2ce:	e8 7d e5 ff ff       	call   8048850 <signal@plt>
 804a2d3:	c7 44 24 08 00 00 00 	movl   $0x0,0x8(%esp)
 804a2da:	00 
 804a2db:	c7 44 24 04 01 00 00 	movl   $0x1,0x4(%esp)
 804a2e2:	00 
 804a2e3:	c7 04 24 02 00 00 00 	movl   $0x2,(%esp)
 804a2ea:	e8 b1 e6 ff ff       	call   80489a0 <socket@plt>
 804a2ef:	89 c3                	mov    %eax,%ebx
 804a2f1:	85 c0                	test   %eax,%eax
 804a2f3:	79 4e                	jns    804a343 <init_driver+0xc2>
 804a2f5:	c7 06 45 72 72 6f    	movl   $0x6f727245,(%esi)
 804a2fb:	c7 46 04 72 3a 20 43 	movl   $0x43203a72,0x4(%esi)
 804a302:	c7 46 08 6c 69 65 6e 	movl   $0x6e65696c,0x8(%esi)
 804a309:	c7 46 0c 74 20 75 6e 	movl   $0x6e752074,0xc(%esi)
 804a310:	c7 46 10 61 62 6c 65 	movl   $0x656c6261,0x10(%esi)
 804a317:	c7 46 14 20 74 6f 20 	movl   $0x206f7420,0x14(%esi)
 804a31e:	c7 46 18 63 72 65 61 	movl   $0x61657263,0x18(%esi)
 804a325:	c7 46 1c 74 65 20 73 	movl   $0x73206574,0x1c(%esi)
 804a32c:	c7 46 20 6f 63 6b 65 	movl   $0x656b636f,0x20(%esi)
 804a333:	66 c7 46 24 74 00    	movw   $0x74,0x24(%esi)
 804a339:	b8 ff ff ff ff       	mov    $0xffffffff,%eax
 804a33e:	e9 0d 01 00 00       	jmp    804a450 <init_driver+0x1cf>
 804a343:	c7 04 24 4c b2 04 08 	movl   $0x804b24c,(%esp)
 804a34a:	e8 81 e6 ff ff       	call   80489d0 <gethostbyname@plt>
 804a34f:	85 c0                	test   %eax,%eax
 804a351:	75 3a                	jne    804a38d <init_driver+0x10c>
 804a353:	c7 44 24 10 4c b2 04 	movl   $0x804b24c,0x10(%esp)
 804a35a:	08 
 804a35b:	c7 44 24 0c e4 b1 04 	movl   $0x804b1e4,0xc(%esp)
 804a362:	08 
 804a363:	c7 44 24 08 ff ff ff 	movl   $0xffffffff,0x8(%esp)
 804a36a:	ff 
 804a36b:	c7 44 24 04 01 00 00 	movl   $0x1,0x4(%esp)
 804a372:	00 
 804a373:	89 34 24             	mov    %esi,(%esp)
 804a376:	e8 a5 e6 ff ff       	call   8048a20 <__sprintf_chk@plt>
 804a37b:	89 1c 24             	mov    %ebx,(%esp)
 804a37e:	e8 7d e6 ff ff       	call   8048a00 <close@plt>
 804a383:	b8 ff ff ff ff       	mov    $0xffffffff,%eax
 804a388:	e9 c3 00 00 00       	jmp    804a450 <init_driver+0x1cf>
 804a38d:	8d 7c 24 2c          	lea    0x2c(%esp),%edi
 804a391:	c7 44 24 2c 00 00 00 	movl   $0x0,0x2c(%esp)
 804a398:	00 
 804a399:	c7 44 24 30 00 00 00 	movl   $0x0,0x30(%esp)
 804a3a0:	00 
 804a3a1:	c7 44 24 34 00 00 00 	movl   $0x0,0x34(%esp)
 804a3a8:	00 
 804a3a9:	c7 44 24 38 00 00 00 	movl   $0x0,0x38(%esp)
 804a3b0:	00 
 804a3b1:	66 c7 44 24 2c 02 00 	movw   $0x2,0x2c(%esp)
 804a3b8:	c7 44 24 0c 0c 00 00 	movl   $0xc,0xc(%esp)
 804a3bf:	00 
 804a3c0:	8b 50 0c             	mov    0xc(%eax),%edx
 804a3c3:	89 54 24 08          	mov    %edx,0x8(%esp)
 804a3c7:	8b 40 10             	mov    0x10(%eax),%eax
 804a3ca:	8b 00                	mov    (%eax),%eax
 804a3cc:	89 44 24 04          	mov    %eax,0x4(%esp)
 804a3d0:	8d 44 24 30          	lea    0x30(%esp),%eax
 804a3d4:	89 04 24             	mov    %eax,(%esp)
 804a3d7:	e8 04 e5 ff ff       	call   80488e0 <__memmove_chk@plt>
 804a3dc:	66 c7 44 24 2e 3b 6e 	movw   $0x6e3b,0x2e(%esp)
 804a3e3:	c7 44 24 08 10 00 00 	movl   $0x10,0x8(%esp)
 804a3ea:	00 
 804a3eb:	89 7c 24 04          	mov    %edi,0x4(%esp)
 804a3ef:	89 1c 24             	mov    %ebx,(%esp)
 804a3f2:	e8 f9 e5 ff ff       	call   80489f0 <connect@plt>
 804a3f7:	85 c0                	test   %eax,%eax
 804a3f9:	79 3f                	jns    804a43a <init_driver+0x1b9>
 804a3fb:	c7 44 24 14 6e 3b 00 	movl   $0x3b6e,0x14(%esp)
 804a402:	00 
 804a403:	c7 44 24 10 4c b2 04 	movl   $0x804b24c,0x10(%esp)
 804a40a:	08 
 804a40b:	c7 44 24 0c 08 b2 04 	movl   $0x804b208,0xc(%esp)
 804a412:	08 
 804a413:	c7 44 24 08 ff ff ff 	movl   $0xffffffff,0x8(%esp)
 804a41a:	ff 
 804a41b:	c7 44 24 04 01 00 00 	movl   $0x1,0x4(%esp)
 804a422:	00 
 804a423:	89 34 24             	mov    %esi,(%esp)
 804a426:	e8 f5 e5 ff ff       	call   8048a20 <__sprintf_chk@plt>
 804a42b:	89 1c 24             	mov    %ebx,(%esp)
 804a42e:	e8 cd e5 ff ff       	call   8048a00 <close@plt>
 804a433:	b8 ff ff ff ff       	mov    $0xffffffff,%eax
 804a438:	eb 16                	jmp    804a450 <init_driver+0x1cf>
 804a43a:	89 1c 24             	mov    %ebx,(%esp)
 804a43d:	e8 be e5 ff ff       	call   8048a00 <close@plt>
 804a442:	66 c7 06 4f 4b       	movw   $0x4b4f,(%esi)
 804a447:	c6 46 02 00          	movb   $0x0,0x2(%esi)
 804a44b:	b8 00 00 00 00       	mov    $0x0,%eax
 804a450:	8b 54 24 3c          	mov    0x3c(%esp),%edx
 804a454:	65 33 15 14 00 00 00 	xor    %gs:0x14,%edx
 804a45b:	74 05                	je     804a462 <init_driver+0x1e1>
 804a45d:	e8 1e e4 ff ff       	call   8048880 <__stack_chk_fail@plt>
 804a462:	83 c4 40             	add    $0x40,%esp
 804a465:	5b                   	pop    %ebx
 804a466:	5e                   	pop    %esi
 804a467:	5f                   	pop    %edi
 804a468:	c3                   	ret    

0804a469 <driver_post>:
 804a469:	53                   	push   %ebx
 804a46a:	83 ec 28             	sub    $0x28,%esp
 804a46d:	8b 44 24 30          	mov    0x30(%esp),%eax
 804a471:	8b 54 24 34          	mov    0x34(%esp),%edx
 804a475:	8b 5c 24 3c          	mov    0x3c(%esp),%ebx
 804a479:	83 7c 24 38 00       	cmpl   $0x0,0x38(%esp)
 804a47e:	74 28                	je     804a4a8 <driver_post+0x3f>
 804a480:	89 54 24 08          	mov    %edx,0x8(%esp)
 804a484:	c7 44 24 04 61 b2 04 	movl   $0x804b261,0x4(%esp)
 804a48b:	08 
 804a48c:	c7 04 24 01 00 00 00 	movl   $0x1,(%esp)
 804a493:	e8 f8 e4 ff ff       	call   8048990 <__printf_chk@plt>
 804a498:	66 c7 03 4f 4b       	movw   $0x4b4f,(%ebx)
 804a49d:	c6 43 02 00          	movb   $0x0,0x2(%ebx)
 804a4a1:	b8 00 00 00 00       	mov    $0x0,%eax
 804a4a6:	eb 49                	jmp    804a4f1 <driver_post+0x88>
 804a4a8:	85 c0                	test   %eax,%eax
 804a4aa:	74 37                	je     804a4e3 <driver_post+0x7a>
 804a4ac:	80 38 00             	cmpb   $0x0,(%eax)
 804a4af:	74 32                	je     804a4e3 <driver_post+0x7a>
 804a4b1:	89 5c 24 18          	mov    %ebx,0x18(%esp)
 804a4b5:	89 54 24 14          	mov    %edx,0x14(%esp)
 804a4b9:	c7 44 24 10 78 b2 04 	movl   $0x804b278,0x10(%esp)
 804a4c0:	08 
 804a4c1:	89 44 24 0c          	mov    %eax,0xc(%esp)
 804a4c5:	c7 44 24 08 83 b2 04 	movl   $0x804b283,0x8(%esp)
 804a4cc:	08 
 804a4cd:	c7 44 24 04 6e 3b 00 	movl   $0x3b6e,0x4(%esp)
 804a4d4:	00 
 804a4d5:	c7 04 24 4c b2 04 08 	movl   $0x804b24c,(%esp)
 804a4dc:	e8 1c f5 ff ff       	call   80499fd <submitr>
 804a4e1:	eb 0e                	jmp    804a4f1 <driver_post+0x88>
 804a4e3:	66 c7 03 4f 4b       	movw   $0x4b4f,(%ebx)
 804a4e8:	c6 43 02 00          	movb   $0x0,0x2(%ebx)
 804a4ec:	b8 00 00 00 00       	mov    $0x0,%eax
 804a4f1:	83 c4 28             	add    $0x28,%esp
 804a4f4:	5b                   	pop    %ebx
 804a4f5:	c3                   	ret    
 804a4f6:	90                   	nop
 804a4f7:	90                   	nop
 804a4f8:	90                   	nop
 804a4f9:	90                   	nop
 804a4fa:	90                   	nop
 804a4fb:	90                   	nop
 804a4fc:	90                   	nop
 804a4fd:	90                   	nop
 804a4fe:	90                   	nop
 804a4ff:	90                   	nop

0804a500 <__libc_csu_init>:
 804a500:	55                   	push   %ebp
 804a501:	57                   	push   %edi
 804a502:	56                   	push   %esi
 804a503:	53                   	push   %ebx
 804a504:	e8 69 00 00 00       	call   804a572 <__i686.get_pc_thunk.bx>
 804a509:	81 c3 eb 2a 00 00    	add    $0x2aeb,%ebx
 804a50f:	83 ec 1c             	sub    $0x1c,%esp
 804a512:	8b 6c 24 30          	mov    0x30(%esp),%ebp
 804a516:	8d bb 20 ff ff ff    	lea    -0xe0(%ebx),%edi
 804a51c:	e8 b7 e2 ff ff       	call   80487d8 <_init>
 804a521:	8d 83 20 ff ff ff    	lea    -0xe0(%ebx),%eax
 804a527:	29 c7                	sub    %eax,%edi
 804a529:	c1 ff 02             	sar    $0x2,%edi
 804a52c:	85 ff                	test   %edi,%edi
 804a52e:	74 29                	je     804a559 <__libc_csu_init+0x59>
 804a530:	31 f6                	xor    %esi,%esi
 804a532:	8d b6 00 00 00 00    	lea    0x0(%esi),%esi
 804a538:	8b 44 24 38          	mov    0x38(%esp),%eax
 804a53c:	89 2c 24             	mov    %ebp,(%esp)
 804a53f:	89 44 24 08          	mov    %eax,0x8(%esp)
 804a543:	8b 44 24 34          	mov    0x34(%esp),%eax
 804a547:	89 44 24 04          	mov    %eax,0x4(%esp)
 804a54b:	ff 94 b3 20 ff ff ff 	call   *-0xe0(%ebx,%esi,4)
 804a552:	83 c6 01             	add    $0x1,%esi
 804a555:	39 fe                	cmp    %edi,%esi
 804a557:	75 df                	jne    804a538 <__libc_csu_init+0x38>
 804a559:	83 c4 1c             	add    $0x1c,%esp
 804a55c:	5b                   	pop    %ebx
 804a55d:	5e                   	pop    %esi
 804a55e:	5f                   	pop    %edi
 804a55f:	5d                   	pop    %ebp
 804a560:	c3                   	ret    
 804a561:	eb 0d                	jmp    804a570 <__libc_csu_fini>
 804a563:	90                   	nop
 804a564:	90                   	nop
 804a565:	90                   	nop
 804a566:	90                   	nop
 804a567:	90                   	nop
 804a568:	90                   	nop
 804a569:	90                   	nop
 804a56a:	90                   	nop
 804a56b:	90                   	nop
 804a56c:	90                   	nop
 804a56d:	90                   	nop
 804a56e:	90                   	nop
 804a56f:	90                   	nop

0804a570 <__libc_csu_fini>:
 804a570:	f3 c3                	repz ret 

0804a572 <__i686.get_pc_thunk.bx>:
 804a572:	8b 1c 24             	mov    (%esp),%ebx
 804a575:	c3                   	ret    
 804a576:	90                   	nop
 804a577:	90                   	nop
 804a578:	90                   	nop
 804a579:	90                   	nop
 804a57a:	90                   	nop
 804a57b:	90                   	nop
 804a57c:	90                   	nop
 804a57d:	90                   	nop
 804a57e:	90                   	nop
 804a57f:	90                   	nop

0804a580 <__do_global_ctors_aux>:
 804a580:	55                   	push   %ebp
 804a581:	89 e5                	mov    %esp,%ebp
 804a583:	53                   	push   %ebx
 804a584:	83 ec 04             	sub    $0x4,%esp
 804a587:	a1 14 cf 04 08       	mov    0x804cf14,%eax
 804a58c:	83 f8 ff             	cmp    $0xffffffff,%eax
 804a58f:	74 13                	je     804a5a4 <__do_global_ctors_aux+0x24>
 804a591:	bb 14 cf 04 08       	mov    $0x804cf14,%ebx
 804a596:	66 90                	xchg   %ax,%ax
 804a598:	83 eb 04             	sub    $0x4,%ebx
 804a59b:	ff d0                	call   *%eax
 804a59d:	8b 03                	mov    (%ebx),%eax
 804a59f:	83 f8 ff             	cmp    $0xffffffff,%eax
 804a5a2:	75 f4                	jne    804a598 <__do_global_ctors_aux+0x18>
 804a5a4:	83 c4 04             	add    $0x4,%esp
 804a5a7:	5b                   	pop    %ebx
 804a5a8:	5d                   	pop    %ebp
 804a5a9:	c3                   	ret    
 804a5aa:	90                   	nop
 804a5ab:	90                   	nop

Disassembly of section .fini:

0804a5ac <_fini>:
 804a5ac:	53                   	push   %ebx
 804a5ad:	83 ec 08             	sub    $0x8,%esp
 804a5b0:	e8 00 00 00 00       	call   804a5b5 <_fini+0x9>
 804a5b5:	5b                   	pop    %ebx
 804a5b6:	81 c3 3f 2a 00 00    	add    $0x2a3f,%ebx
 804a5bc:	e8 9f e4 ff ff       	call   8048a60 <__do_global_dtors_aux>
 804a5c1:	83 c4 08             	add    $0x8,%esp
 804a5c4:	5b                   	pop    %ebx
 804a5c5:	c3                   	ret    
